
OEE_CIN.elf:     file format elf32-avr

Sections:
Idx Name          Size      VMA       LMA       File off  Algn
  0 .data         000001c4  00800100  00003ea8  00003f3c  2**0
                  CONTENTS, ALLOC, LOAD, DATA
  1 .text         00003ea8  00000000  00000000  00000094  2**1
                  CONTENTS, ALLOC, LOAD, READONLY, CODE
  2 .bss          0000002d  008002c4  008002c4  00004100  2**0
                  ALLOC
  3 .comment      0000005c  00000000  00000000  00004100  2**0
                  CONTENTS, READONLY
  4 .note.gnu.avr.deviceinfo 00000040  00000000  00000000  0000415c  2**2
                  CONTENTS, READONLY
  5 .debug_aranges 000005e8  00000000  00000000  000041a0  2**3
                  CONTENTS, READONLY, DEBUGGING
  6 .debug_info   00005a81  00000000  00000000  00004788  2**0
                  CONTENTS, READONLY, DEBUGGING
  7 .debug_abbrev 0000102b  00000000  00000000  0000a209  2**0
                  CONTENTS, READONLY, DEBUGGING
  8 .debug_line   00003cc4  00000000  00000000  0000b234  2**0
                  CONTENTS, READONLY, DEBUGGING
  9 .debug_frame  0000134c  00000000  00000000  0000eef8  2**2
                  CONTENTS, READONLY, DEBUGGING
 10 .debug_str    00001421  00000000  00000000  00010244  2**0
                  CONTENTS, READONLY, DEBUGGING
 11 .debug_loc    00007b0a  00000000  00000000  00011665  2**0
                  CONTENTS, READONLY, DEBUGGING
 12 .debug_ranges 00000550  00000000  00000000  0001916f  2**0
                  CONTENTS, READONLY, DEBUGGING

Disassembly of section .text:

00000000 <__vectors>:
       0:	0c 94 e7 00 	jmp	0x1ce	; 0x1ce <__ctors_end>
       4:	0c 94 04 01 	jmp	0x208	; 0x208 <__bad_interrupt>
       8:	0c 94 04 01 	jmp	0x208	; 0x208 <__bad_interrupt>
       c:	0c 94 04 01 	jmp	0x208	; 0x208 <__bad_interrupt>
      10:	0c 94 04 01 	jmp	0x208	; 0x208 <__bad_interrupt>
      14:	0c 94 04 01 	jmp	0x208	; 0x208 <__bad_interrupt>
      18:	0c 94 04 01 	jmp	0x208	; 0x208 <__bad_interrupt>
      1c:	0c 94 04 01 	jmp	0x208	; 0x208 <__bad_interrupt>
      20:	0c 94 04 01 	jmp	0x208	; 0x208 <__bad_interrupt>
      24:	0c 94 04 01 	jmp	0x208	; 0x208 <__bad_interrupt>
      28:	0c 94 04 01 	jmp	0x208	; 0x208 <__bad_interrupt>
      2c:	0c 94 04 01 	jmp	0x208	; 0x208 <__bad_interrupt>
      30:	0c 94 04 01 	jmp	0x208	; 0x208 <__bad_interrupt>
      34:	0c 94 04 01 	jmp	0x208	; 0x208 <__bad_interrupt>
      38:	0c 94 04 01 	jmp	0x208	; 0x208 <__bad_interrupt>
      3c:	0c 94 04 01 	jmp	0x208	; 0x208 <__bad_interrupt>
      40:	0c 94 f9 12 	jmp	0x25f2	; 0x25f2 <__vector_16>
      44:	0c 94 04 01 	jmp	0x208	; 0x208 <__bad_interrupt>
      48:	0c 94 04 01 	jmp	0x208	; 0x208 <__bad_interrupt>
      4c:	0c 94 04 01 	jmp	0x208	; 0x208 <__bad_interrupt>
      50:	0c 94 04 01 	jmp	0x208	; 0x208 <__bad_interrupt>
      54:	0c 94 04 01 	jmp	0x208	; 0x208 <__bad_interrupt>
      58:	0c 94 04 01 	jmp	0x208	; 0x208 <__bad_interrupt>
      5c:	0c 94 04 01 	jmp	0x208	; 0x208 <__bad_interrupt>
      60:	0c 94 04 01 	jmp	0x208	; 0x208 <__bad_interrupt>
      64:	0c 94 04 01 	jmp	0x208	; 0x208 <__bad_interrupt>
      68:	0f 03       	fmul	r16, r23
      6a:	4f 03       	fmul	r20, r23
      6c:	4f 03       	fmul	r20, r23
      6e:	4f 03       	fmul	r20, r23
      70:	4f 03       	fmul	r20, r23
      72:	4f 03       	fmul	r20, r23
      74:	4f 03       	fmul	r20, r23
      76:	4f 03       	fmul	r20, r23
      78:	4f 03       	fmul	r20, r23
      7a:	4f 03       	fmul	r20, r23
      7c:	4f 03       	fmul	r20, r23
      7e:	4f 03       	fmul	r20, r23
      80:	4f 03       	fmul	r20, r23
      82:	0f 03       	fmul	r16, r23
      84:	4f 03       	fmul	r20, r23
      86:	4f 03       	fmul	r20, r23
      88:	4f 03       	fmul	r20, r23
      8a:	4f 03       	fmul	r20, r23
      8c:	4f 03       	fmul	r20, r23
      8e:	4f 03       	fmul	r20, r23
      90:	4f 03       	fmul	r20, r23
      92:	4f 03       	fmul	r20, r23
      94:	4f 03       	fmul	r20, r23
      96:	4f 03       	fmul	r20, r23
      98:	4f 03       	fmul	r20, r23
      9a:	4f 03       	fmul	r20, r23
      9c:	4f 03       	fmul	r20, r23
      9e:	4f 03       	fmul	r20, r23
      a0:	4f 03       	fmul	r20, r23
      a2:	4f 03       	fmul	r20, r23
      a4:	4f 03       	fmul	r20, r23
      a6:	4f 03       	fmul	r20, r23
      a8:	4f 03       	fmul	r20, r23
      aa:	4f 03       	fmul	r20, r23
      ac:	4f 03       	fmul	r20, r23
      ae:	4f 03       	fmul	r20, r23
      b0:	4f 03       	fmul	r20, r23
      b2:	4f 03       	fmul	r20, r23
      b4:	4f 03       	fmul	r20, r23
      b6:	4f 03       	fmul	r20, r23
      b8:	4f 03       	fmul	r20, r23
      ba:	4f 03       	fmul	r20, r23
      bc:	4f 03       	fmul	r20, r23
      be:	4f 03       	fmul	r20, r23
      c0:	4f 03       	fmul	r20, r23
      c2:	4f 03       	fmul	r20, r23
      c4:	4f 03       	fmul	r20, r23
      c6:	4f 03       	fmul	r20, r23
      c8:	4f 03       	fmul	r20, r23
      ca:	4f 03       	fmul	r20, r23
      cc:	4f 03       	fmul	r20, r23
      ce:	4f 03       	fmul	r20, r23
      d0:	4f 03       	fmul	r20, r23
      d2:	4f 03       	fmul	r20, r23
      d4:	4f 03       	fmul	r20, r23
      d6:	4f 03       	fmul	r20, r23
      d8:	4f 03       	fmul	r20, r23
      da:	4f 03       	fmul	r20, r23
      dc:	0f 03       	fmul	r16, r23
      de:	4f 03       	fmul	r20, r23
      e0:	4f 03       	fmul	r20, r23
      e2:	4f 03       	fmul	r20, r23
      e4:	4f 03       	fmul	r20, r23
      e6:	4f 03       	fmul	r20, r23
      e8:	dd 02       	muls	r29, r29
      ea:	4f 03       	fmul	r20, r23
      ec:	4f 03       	fmul	r20, r23
      ee:	4f 03       	fmul	r20, r23
      f0:	e7 02       	muls	r30, r23
      f2:	4f 03       	fmul	r20, r23
      f4:	4f 03       	fmul	r20, r23
      f6:	4f 03       	fmul	r20, r23
      f8:	4f 03       	fmul	r20, r23
      fa:	4f 03       	fmul	r20, r23
      fc:	4f 03       	fmul	r20, r23
      fe:	4f 03       	fmul	r20, r23
     100:	f1 02       	muls	r31, r17
     102:	4f 03       	fmul	r20, r23
     104:	4f 03       	fmul	r20, r23
     106:	4f 03       	fmul	r20, r23
     108:	fb 02       	muls	r31, r27
     10a:	4f 03       	fmul	r20, r23
     10c:	05 03       	mulsu	r16, r21
     10e:	1b 03       	fmul	r17, r19
     110:	c4 05       	cpc	r28, r4
     112:	e0 05       	cpc	r30, r0
     114:	c4 05       	cpc	r28, r4
     116:	c8 05       	cpc	r28, r8
     118:	e0 05       	cpc	r30, r0
     11a:	c4 05       	cpc	r28, r4
     11c:	c4 05       	cpc	r28, r4
     11e:	c4 05       	cpc	r28, r4
     120:	c4 05       	cpc	r28, r4
     122:	c4 05       	cpc	r28, r4
     124:	c4 05       	cpc	r28, r4
     126:	c4 05       	cpc	r28, r4
     128:	c4 05       	cpc	r28, r4
     12a:	c4 05       	cpc	r28, r4
     12c:	c4 05       	cpc	r28, r4
     12e:	e0 05       	cpc	r30, r0
     130:	e0 05       	cpc	r30, r0
     132:	e0 05       	cpc	r30, r0
     134:	e0 05       	cpc	r30, r0
     136:	e0 05       	cpc	r30, r0
     138:	e0 05       	cpc	r30, r0
     13a:	e0 05       	cpc	r30, r0
     13c:	e0 05       	cpc	r30, r0
     13e:	e0 05       	cpc	r30, r0
     140:	e0 05       	cpc	r30, r0
     142:	e0 05       	cpc	r30, r0
     144:	c4 05       	cpc	r28, r4
     146:	e0 05       	cpc	r30, r0
     148:	e0 05       	cpc	r30, r0
     14a:	e0 05       	cpc	r30, r0
     14c:	e0 05       	cpc	r30, r0
     14e:	e0 05       	cpc	r30, r0
     150:	e0 05       	cpc	r30, r0
     152:	e0 05       	cpc	r30, r0
     154:	e0 05       	cpc	r30, r0
     156:	e0 05       	cpc	r30, r0
     158:	e0 05       	cpc	r30, r0
     15a:	e0 05       	cpc	r30, r0
     15c:	e0 05       	cpc	r30, r0
     15e:	e0 05       	cpc	r30, r0
     160:	e0 05       	cpc	r30, r0
     162:	e0 05       	cpc	r30, r0
     164:	e0 05       	cpc	r30, r0
     166:	e0 05       	cpc	r30, r0
     168:	e0 05       	cpc	r30, r0
     16a:	e0 05       	cpc	r30, r0
     16c:	e0 05       	cpc	r30, r0
     16e:	e0 05       	cpc	r30, r0
     170:	e0 05       	cpc	r30, r0
     172:	e0 05       	cpc	r30, r0
     174:	e0 05       	cpc	r30, r0
     176:	e0 05       	cpc	r30, r0
     178:	e0 05       	cpc	r30, r0
     17a:	e0 05       	cpc	r30, r0
     17c:	e0 05       	cpc	r30, r0
     17e:	e0 05       	cpc	r30, r0
     180:	e0 05       	cpc	r30, r0
     182:	e0 05       	cpc	r30, r0
     184:	c4 05       	cpc	r28, r4

00000186 <__trampolines_end>:
     186:	4e 41       	sbci	r20, 0x1E	; 30
     188:	4e 49       	Address 0x00000188 is out of bounds.
.word	0xffff	; ????

00000189 <pstr_inity>:
     189:	49 4e 49 54 59                                      INITY

0000018e <pstr_inf>:
     18e:	49 4e 46                                            INF

00000191 <pwr_m10>:
     191:	cd cc cc 3d 0a d7 23 3c 17 b7 d1 38 77 cc 2b 32     ...=..#<...8w.+2
     1a1:	95 95 e6 24 1f b1 4f 0a                             ...$..O.

000001a9 <pwr_p10>:
     1a9:	00 00 20 41 00 00 c8 42 00 40 1c 46 20 bc be 4c     .. A...B.@.F ..L
     1b9:	ca 1b 0e 5a ae c5 9d 74                             ...Z...t

000001c1 <__c.2474>:
     1c1:	63 64 69 6e 6f 70 73 75 78 58 5b 00 00              cdinopsuxX[..

000001ce <__ctors_end>:
     1ce:	11 24       	eor	r1, r1
     1d0:	1f be       	out	0x3f, r1	; 63
     1d2:	cf ef       	ldi	r28, 0xFF	; 255
     1d4:	d8 e0       	ldi	r29, 0x08	; 8
     1d6:	de bf       	out	0x3e, r29	; 62
     1d8:	cd bf       	out	0x3d, r28	; 61

000001da <__do_copy_data>:
     1da:	12 e0       	ldi	r17, 0x02	; 2
     1dc:	a0 e0       	ldi	r26, 0x00	; 0
     1de:	b1 e0       	ldi	r27, 0x01	; 1
     1e0:	e8 ea       	ldi	r30, 0xA8	; 168
     1e2:	fe e3       	ldi	r31, 0x3E	; 62
     1e4:	02 c0       	rjmp	.+4      	; 0x1ea <__do_copy_data+0x10>
     1e6:	05 90       	lpm	r0, Z+
     1e8:	0d 92       	st	X+, r0
     1ea:	a4 3c       	cpi	r26, 0xC4	; 196
     1ec:	b1 07       	cpc	r27, r17
     1ee:	d9 f7       	brne	.-10     	; 0x1e6 <__do_copy_data+0xc>

000001f0 <__do_clear_bss>:
     1f0:	22 e0       	ldi	r18, 0x02	; 2
     1f2:	a4 ec       	ldi	r26, 0xC4	; 196
     1f4:	b2 e0       	ldi	r27, 0x02	; 2
     1f6:	01 c0       	rjmp	.+2      	; 0x1fa <.do_clear_bss_start>

000001f8 <.do_clear_bss_loop>:
     1f8:	1d 92       	st	X+, r1

000001fa <.do_clear_bss_start>:
     1fa:	a1 3f       	cpi	r26, 0xF1	; 241
     1fc:	b2 07       	cpc	r27, r18
     1fe:	e1 f7       	brne	.-8      	; 0x1f8 <.do_clear_bss_loop>
     200:	0e 94 35 12 	call	0x246a	; 0x246a <main>
     204:	0c 94 52 1f 	jmp	0x3ea4	; 0x3ea4 <_exit>

00000208 <__bad_interrupt>:
     208:	0c 94 00 00 	jmp	0	; 0x0 <__vectors>

0000020c <get_decimal_point>:
    {
        return (double) NAN;
    }

    return item->valuedouble;
}
     20c:	8e e2       	ldi	r24, 0x2E	; 46
     20e:	08 95       	ret

00000210 <compare_double>:
     210:	4f 92       	push	r4
     212:	5f 92       	push	r5
     214:	6f 92       	push	r6
     216:	7f 92       	push	r7
     218:	8f 92       	push	r8
     21a:	9f 92       	push	r9
     21c:	af 92       	push	r10
     21e:	bf 92       	push	r11
     220:	cf 92       	push	r12
     222:	df 92       	push	r13
     224:	ef 92       	push	r14
     226:	ff 92       	push	r15
     228:	cf 93       	push	r28
     22a:	df 93       	push	r29
     22c:	00 d0       	rcall	.+0      	; 0x22e <compare_double+0x1e>
     22e:	00 d0       	rcall	.+0      	; 0x230 <compare_double+0x20>
     230:	cd b7       	in	r28, 0x3d	; 61
     232:	de b7       	in	r29, 0x3e	; 62
     234:	6b 01       	movw	r12, r22
     236:	7c 01       	movw	r14, r24
     238:	49 01       	movw	r8, r18
     23a:	5a 01       	movw	r10, r20
     23c:	dc 01       	movw	r26, r24
     23e:	cb 01       	movw	r24, r22
     240:	bf 77       	andi	r27, 0x7F	; 127
     242:	89 83       	std	Y+1, r24	; 0x01
     244:	9a 83       	std	Y+2, r25	; 0x02
     246:	ab 83       	std	Y+3, r26	; 0x03
     248:	bc 83       	std	Y+4, r27	; 0x04
     24a:	29 01       	movw	r4, r18
     24c:	3a 01       	movw	r6, r20
     24e:	e8 94       	clt
     250:	77 f8       	bld	r7, 7
     252:	a3 01       	movw	r20, r6
     254:	92 01       	movw	r18, r4
     256:	bc 01       	movw	r22, r24
     258:	cd 01       	movw	r24, r26
     25a:	0e 94 ce 14 	call	0x299c	; 0x299c <__gesf2>
     25e:	18 16       	cp	r1, r24
     260:	24 f4       	brge	.+8      	; 0x26a <compare_double+0x5a>
     262:	49 80       	ldd	r4, Y+1	; 0x01
     264:	5a 80       	ldd	r5, Y+2	; 0x02
     266:	6b 80       	ldd	r6, Y+3	; 0x03
     268:	7c 80       	ldd	r7, Y+4	; 0x04
     26a:	a5 01       	movw	r20, r10
     26c:	94 01       	movw	r18, r8
     26e:	c7 01       	movw	r24, r14
     270:	b6 01       	movw	r22, r12
     272:	0e 94 74 13 	call	0x26e8	; 0x26e8 <__subsf3>
     276:	6b 01       	movw	r12, r22
     278:	7c 01       	movw	r14, r24
     27a:	e8 94       	clt
     27c:	f7 f8       	bld	r15, 7
     27e:	20 e0       	ldi	r18, 0x00	; 0
     280:	30 e0       	ldi	r19, 0x00	; 0
     282:	40 e0       	ldi	r20, 0x00	; 0
     284:	54 e3       	ldi	r21, 0x34	; 52
     286:	c3 01       	movw	r24, r6
     288:	b2 01       	movw	r22, r4
     28a:	0e 94 d3 14 	call	0x29a6	; 0x29a6 <__mulsf3>
     28e:	9b 01       	movw	r18, r22
     290:	ac 01       	movw	r20, r24
     292:	91 e0       	ldi	r25, 0x01	; 1
     294:	99 83       	std	Y+1, r25	; 0x01
     296:	c7 01       	movw	r24, r14
     298:	b6 01       	movw	r22, r12
     29a:	0e 94 e1 13 	call	0x27c2	; 0x27c2 <__cmpsf2>
     29e:	18 16       	cp	r1, r24
     2a0:	0c f4       	brge	.+2      	; 0x2a4 <compare_double+0x94>
     2a2:	19 82       	std	Y+1, r1	; 0x01
     2a4:	a9 81       	ldd	r26, Y+1	; 0x01
     2a6:	8a 2f       	mov	r24, r26
     2a8:	90 e0       	ldi	r25, 0x00	; 0
     2aa:	0f 90       	pop	r0
     2ac:	0f 90       	pop	r0
     2ae:	0f 90       	pop	r0
     2b0:	0f 90       	pop	r0
     2b2:	df 91       	pop	r29
     2b4:	cf 91       	pop	r28
     2b6:	ff 90       	pop	r15
     2b8:	ef 90       	pop	r14
     2ba:	df 90       	pop	r13
     2bc:	cf 90       	pop	r12
     2be:	bf 90       	pop	r11
     2c0:	af 90       	pop	r10
     2c2:	9f 90       	pop	r9
     2c4:	8f 90       	pop	r8
     2c6:	7f 90       	pop	r7
     2c8:	6f 90       	pop	r6
     2ca:	5f 90       	pop	r5
     2cc:	4f 90       	pop	r4
     2ce:	08 95       	ret

000002d0 <parse_hex4>:
     2d0:	dc 01       	movw	r26, r24
     2d2:	40 e0       	ldi	r20, 0x00	; 0
     2d4:	50 e0       	ldi	r21, 0x00	; 0
     2d6:	20 e0       	ldi	r18, 0x00	; 0
     2d8:	30 e0       	ldi	r19, 0x00	; 0
     2da:	29 c0       	rjmp	.+82     	; 0x32e <parse_hex4+0x5e>
     2dc:	fd 01       	movw	r30, r26
     2de:	e4 0f       	add	r30, r20
     2e0:	f5 1f       	adc	r31, r21
     2e2:	90 81       	ld	r25, Z
     2e4:	60 ed       	ldi	r22, 0xD0	; 208
     2e6:	69 0f       	add	r22, r25
     2e8:	6a 30       	cpi	r22, 0x0A	; 10
     2ea:	28 f4       	brcc	.+10     	; 0x2f6 <parse_hex4+0x26>
     2ec:	29 0f       	add	r18, r25
     2ee:	31 1d       	adc	r19, r1
     2f0:	20 53       	subi	r18, 0x30	; 48
     2f2:	31 09       	sbc	r19, r1
     2f4:	11 c0       	rjmp	.+34     	; 0x318 <parse_hex4+0x48>
     2f6:	8f eb       	ldi	r24, 0xBF	; 191
     2f8:	89 0f       	add	r24, r25
     2fa:	86 30       	cpi	r24, 0x06	; 6
     2fc:	28 f4       	brcc	.+10     	; 0x308 <parse_hex4+0x38>
     2fe:	29 0f       	add	r18, r25
     300:	31 1d       	adc	r19, r1
     302:	27 53       	subi	r18, 0x37	; 55
     304:	31 09       	sbc	r19, r1
     306:	08 c0       	rjmp	.+16     	; 0x318 <parse_hex4+0x48>
     308:	8f e9       	ldi	r24, 0x9F	; 159
     30a:	89 0f       	add	r24, r25
     30c:	86 30       	cpi	r24, 0x06	; 6
     30e:	a8 f4       	brcc	.+42     	; 0x33a <parse_hex4+0x6a>
     310:	29 0f       	add	r18, r25
     312:	31 1d       	adc	r19, r1
     314:	27 55       	subi	r18, 0x57	; 87
     316:	31 09       	sbc	r19, r1
     318:	43 30       	cpi	r20, 0x03	; 3
     31a:	51 05       	cpc	r21, r1
     31c:	30 f4       	brcc	.+12     	; 0x32a <parse_hex4+0x5a>
     31e:	22 95       	swap	r18
     320:	32 95       	swap	r19
     322:	30 7f       	andi	r19, 0xF0	; 240
     324:	32 27       	eor	r19, r18
     326:	20 7f       	andi	r18, 0xF0	; 240
     328:	32 27       	eor	r19, r18
     32a:	4f 5f       	subi	r20, 0xFF	; 255
     32c:	5f 4f       	sbci	r21, 0xFF	; 255
     32e:	44 30       	cpi	r20, 0x04	; 4
     330:	51 05       	cpc	r21, r1
     332:	a0 f2       	brcs	.-88     	; 0x2dc <parse_hex4+0xc>
     334:	82 2f       	mov	r24, r18
     336:	93 2f       	mov	r25, r19
     338:	08 95       	ret
     33a:	80 e0       	ldi	r24, 0x00	; 0
     33c:	90 e0       	ldi	r25, 0x00	; 0
     33e:	08 95       	ret

00000340 <utf16_literal_to_utf8>:
     340:	cf 92       	push	r12
     342:	df 92       	push	r13
     344:	ef 92       	push	r14
     346:	ff 92       	push	r15
     348:	0f 93       	push	r16
     34a:	1f 93       	push	r17
     34c:	cf 93       	push	r28
     34e:	df 93       	push	r29
     350:	9b 01       	movw	r18, r22
     352:	28 1b       	sub	r18, r24
     354:	39 0b       	sbc	r19, r25
     356:	26 30       	cpi	r18, 0x06	; 6
     358:	31 05       	cpc	r19, r1
     35a:	0c f4       	brge	.+2      	; 0x35e <utf16_literal_to_utf8+0x1e>
     35c:	88 c0       	rjmp	.+272    	; 0x46e <__EEPROM_REGION_LENGTH__+0x6e>
     35e:	ea 01       	movw	r28, r20
     360:	6b 01       	movw	r12, r22
     362:	7c 01       	movw	r14, r24
     364:	02 96       	adiw	r24, 0x02	; 2
     366:	0e 94 68 01 	call	0x2d0	; 0x2d0 <parse_hex4>
     36a:	8c 01       	movw	r16, r24
     36c:	9c 5d       	subi	r25, 0xDC	; 220
     36e:	81 15       	cp	r24, r1
     370:	24 e0       	ldi	r18, 0x04	; 4
     372:	92 07       	cpc	r25, r18
     374:	08 f4       	brcc	.+2      	; 0x378 <utf16_literal_to_utf8+0x38>
     376:	7d c0       	rjmp	.+250    	; 0x472 <__EEPROM_REGION_LENGTH__+0x72>
     378:	9c 5f       	subi	r25, 0xFC	; 252
     37a:	81 15       	cp	r24, r1
     37c:	94 40       	sbci	r25, 0x04	; 4
     37e:	48 f5       	brcc	.+82     	; 0x3d2 <utf16_literal_to_utf8+0x92>
     380:	c7 01       	movw	r24, r14
     382:	06 96       	adiw	r24, 0x06	; 6
     384:	b6 01       	movw	r22, r12
     386:	68 1b       	sub	r22, r24
     388:	79 0b       	sbc	r23, r25
     38a:	66 30       	cpi	r22, 0x06	; 6
     38c:	71 05       	cpc	r23, r1
     38e:	0c f4       	brge	.+2      	; 0x392 <utf16_literal_to_utf8+0x52>
     390:	72 c0       	rjmp	.+228    	; 0x476 <__EEPROM_REGION_LENGTH__+0x76>
     392:	f7 01       	movw	r30, r14
     394:	86 81       	ldd	r24, Z+6	; 0x06
     396:	8c 35       	cpi	r24, 0x5C	; 92
     398:	09 f0       	breq	.+2      	; 0x39c <utf16_literal_to_utf8+0x5c>
     39a:	6f c0       	rjmp	.+222    	; 0x47a <__EEPROM_REGION_LENGTH__+0x7a>
     39c:	87 81       	ldd	r24, Z+7	; 0x07
     39e:	85 37       	cpi	r24, 0x75	; 117
     3a0:	09 f0       	breq	.+2      	; 0x3a4 <utf16_literal_to_utf8+0x64>
     3a2:	6d c0       	rjmp	.+218    	; 0x47e <__EEPROM_REGION_LENGTH__+0x7e>
     3a4:	c7 01       	movw	r24, r14
     3a6:	08 96       	adiw	r24, 0x08	; 8
     3a8:	0e 94 68 01 	call	0x2d0	; 0x2d0 <parse_hex4>
     3ac:	9c 01       	movw	r18, r24
     3ae:	3c 5d       	subi	r19, 0xDC	; 220
     3b0:	21 15       	cp	r18, r1
     3b2:	34 40       	sbci	r19, 0x04	; 4
     3b4:	08 f0       	brcs	.+2      	; 0x3b8 <utf16_literal_to_utf8+0x78>
     3b6:	65 c0       	rjmp	.+202    	; 0x482 <__EEPROM_REGION_LENGTH__+0x82>
     3b8:	10 2f       	mov	r17, r16
     3ba:	00 27       	eor	r16, r16
     3bc:	11 0f       	add	r17, r17
     3be:	11 0f       	add	r17, r17
     3c0:	93 70       	andi	r25, 0x03	; 3
     3c2:	08 2b       	or	r16, r24
     3c4:	19 2b       	or	r17, r25
     3c6:	20 e0       	ldi	r18, 0x00	; 0
     3c8:	30 e0       	ldi	r19, 0x00	; 0
     3ca:	2f 5f       	subi	r18, 0xFF	; 255
     3cc:	3f 4f       	sbci	r19, 0xFF	; 255
     3ce:	8c e0       	ldi	r24, 0x0C	; 12
     3d0:	03 c0       	rjmp	.+6      	; 0x3d8 <utf16_literal_to_utf8+0x98>
     3d2:	20 e0       	ldi	r18, 0x00	; 0
     3d4:	30 e0       	ldi	r19, 0x00	; 0
     3d6:	86 e0       	ldi	r24, 0x06	; 6
     3d8:	00 38       	cpi	r16, 0x80	; 128
     3da:	11 05       	cpc	r17, r1
     3dc:	21 05       	cpc	r18, r1
     3de:	31 05       	cpc	r19, r1
     3e0:	b0 f0       	brcs	.+44     	; 0x40e <__EEPROM_REGION_LENGTH__+0xe>
     3e2:	01 15       	cp	r16, r1
     3e4:	48 e0       	ldi	r20, 0x08	; 8
     3e6:	14 07       	cpc	r17, r20
     3e8:	21 05       	cpc	r18, r1
     3ea:	31 05       	cpc	r19, r1
     3ec:	98 f0       	brcs	.+38     	; 0x414 <__EEPROM_REGION_LENGTH__+0x14>
     3ee:	01 15       	cp	r16, r1
     3f0:	11 05       	cpc	r17, r1
     3f2:	91 e0       	ldi	r25, 0x01	; 1
     3f4:	29 07       	cpc	r18, r25
     3f6:	31 05       	cpc	r19, r1
     3f8:	80 f0       	brcs	.+32     	; 0x41a <__EEPROM_REGION_LENGTH__+0x1a>
     3fa:	01 15       	cp	r16, r1
     3fc:	11 05       	cpc	r17, r1
     3fe:	e1 e1       	ldi	r30, 0x11	; 17
     400:	2e 07       	cpc	r18, r30
     402:	31 05       	cpc	r19, r1
     404:	08 f0       	brcs	.+2      	; 0x408 <__EEPROM_REGION_LENGTH__+0x8>
     406:	3f c0       	rjmp	.+126    	; 0x486 <__EEPROM_REGION_LENGTH__+0x86>
     408:	60 ef       	ldi	r22, 0xF0	; 240
     40a:	54 e0       	ldi	r21, 0x04	; 4
     40c:	08 c0       	rjmp	.+16     	; 0x41e <__EEPROM_REGION_LENGTH__+0x1e>
     40e:	60 e0       	ldi	r22, 0x00	; 0
     410:	51 e0       	ldi	r21, 0x01	; 1
     412:	05 c0       	rjmp	.+10     	; 0x41e <__EEPROM_REGION_LENGTH__+0x1e>
     414:	60 ec       	ldi	r22, 0xC0	; 192
     416:	52 e0       	ldi	r21, 0x02	; 2
     418:	02 c0       	rjmp	.+4      	; 0x41e <__EEPROM_REGION_LENGTH__+0x1e>
     41a:	60 ee       	ldi	r22, 0xE0	; 224
     41c:	53 e0       	ldi	r21, 0x03	; 3
     41e:	9f ef       	ldi	r25, 0xFF	; 255
     420:	95 0f       	add	r25, r21
     422:	11 c0       	rjmp	.+34     	; 0x446 <__EEPROM_REGION_LENGTH__+0x46>
     424:	e8 81       	ld	r30, Y
     426:	f9 81       	ldd	r31, Y+1	; 0x01
     428:	e9 0f       	add	r30, r25
     42a:	f1 1d       	adc	r31, r1
     42c:	40 2f       	mov	r20, r16
     42e:	4f 73       	andi	r20, 0x3F	; 63
     430:	40 68       	ori	r20, 0x80	; 128
     432:	40 83       	st	Z, r20
     434:	68 94       	set
     436:	15 f8       	bld	r1, 5
     438:	36 95       	lsr	r19
     43a:	27 95       	ror	r18
     43c:	17 95       	ror	r17
     43e:	07 95       	ror	r16
     440:	16 94       	lsr	r1
     442:	d1 f7       	brne	.-12     	; 0x438 <__EEPROM_REGION_LENGTH__+0x38>
     444:	91 50       	subi	r25, 0x01	; 1
     446:	91 11       	cpse	r25, r1
     448:	ed cf       	rjmp	.-38     	; 0x424 <__EEPROM_REGION_LENGTH__+0x24>
     44a:	52 30       	cpi	r21, 0x02	; 2
     44c:	28 f0       	brcs	.+10     	; 0x458 <__EEPROM_REGION_LENGTH__+0x58>
     44e:	e8 81       	ld	r30, Y
     450:	f9 81       	ldd	r31, Y+1	; 0x01
     452:	06 2b       	or	r16, r22
     454:	00 83       	st	Z, r16
     456:	04 c0       	rjmp	.+8      	; 0x460 <__EEPROM_REGION_LENGTH__+0x60>
     458:	e8 81       	ld	r30, Y
     45a:	f9 81       	ldd	r31, Y+1	; 0x01
     45c:	0f 77       	andi	r16, 0x7F	; 127
     45e:	00 83       	st	Z, r16
     460:	28 81       	ld	r18, Y
     462:	39 81       	ldd	r19, Y+1	; 0x01
     464:	25 0f       	add	r18, r21
     466:	31 1d       	adc	r19, r1
     468:	39 83       	std	Y+1, r19	; 0x01
     46a:	28 83       	st	Y, r18
     46c:	0d c0       	rjmp	.+26     	; 0x488 <__EEPROM_REGION_LENGTH__+0x88>
     46e:	80 e0       	ldi	r24, 0x00	; 0
     470:	0b c0       	rjmp	.+22     	; 0x488 <__EEPROM_REGION_LENGTH__+0x88>
     472:	80 e0       	ldi	r24, 0x00	; 0
     474:	09 c0       	rjmp	.+18     	; 0x488 <__EEPROM_REGION_LENGTH__+0x88>
     476:	80 e0       	ldi	r24, 0x00	; 0
     478:	07 c0       	rjmp	.+14     	; 0x488 <__EEPROM_REGION_LENGTH__+0x88>
     47a:	80 e0       	ldi	r24, 0x00	; 0
     47c:	05 c0       	rjmp	.+10     	; 0x488 <__EEPROM_REGION_LENGTH__+0x88>
     47e:	80 e0       	ldi	r24, 0x00	; 0
     480:	03 c0       	rjmp	.+6      	; 0x488 <__EEPROM_REGION_LENGTH__+0x88>
     482:	80 e0       	ldi	r24, 0x00	; 0
     484:	01 c0       	rjmp	.+2      	; 0x488 <__EEPROM_REGION_LENGTH__+0x88>
     486:	80 e0       	ldi	r24, 0x00	; 0
     488:	df 91       	pop	r29
     48a:	cf 91       	pop	r28
     48c:	1f 91       	pop	r17
     48e:	0f 91       	pop	r16
     490:	ff 90       	pop	r15
     492:	ef 90       	pop	r14
     494:	df 90       	pop	r13
     496:	cf 90       	pop	r12
     498:	08 95       	ret

0000049a <parse_string>:
     49a:	6f 92       	push	r6
     49c:	7f 92       	push	r7
     49e:	8f 92       	push	r8
     4a0:	9f 92       	push	r9
     4a2:	af 92       	push	r10
     4a4:	bf 92       	push	r11
     4a6:	cf 92       	push	r12
     4a8:	df 92       	push	r13
     4aa:	ef 92       	push	r14
     4ac:	ff 92       	push	r15
     4ae:	0f 93       	push	r16
     4b0:	1f 93       	push	r17
     4b2:	cf 93       	push	r28
     4b4:	df 93       	push	r29
     4b6:	00 d0       	rcall	.+0      	; 0x4b8 <parse_string+0x1e>
     4b8:	cd b7       	in	r28, 0x3d	; 61
     4ba:	de b7       	in	r29, 0x3e	; 62
     4bc:	5c 01       	movw	r10, r24
     4be:	7b 01       	movw	r14, r22
     4c0:	db 01       	movw	r26, r22
     4c2:	8d 91       	ld	r24, X+
     4c4:	9c 91       	ld	r25, X
     4c6:	11 97       	sbiw	r26, 0x01	; 1
     4c8:	14 96       	adiw	r26, 0x04	; 4
     4ca:	ed 91       	ld	r30, X+
     4cc:	fc 91       	ld	r31, X
     4ce:	15 97       	sbiw	r26, 0x05	; 5
     4d0:	6f 01       	movw	r12, r30
     4d2:	bf ef       	ldi	r27, 0xFF	; 255
     4d4:	cb 1a       	sub	r12, r27
     4d6:	db 0a       	sbc	r13, r27
     4d8:	c8 0e       	add	r12, r24
     4da:	d9 1e       	adc	r13, r25
     4dc:	1a 82       	std	Y+2, r1	; 0x02
     4de:	19 82       	std	Y+1, r1	; 0x01
     4e0:	ac 01       	movw	r20, r24
     4e2:	4f 01       	movw	r8, r30
     4e4:	88 0e       	add	r8, r24
     4e6:	99 1e       	adc	r9, r25
     4e8:	f4 01       	movw	r30, r8
     4ea:	80 81       	ld	r24, Z
     4ec:	82 32       	cpi	r24, 0x22	; 34
     4ee:	09 f0       	breq	.+2      	; 0x4f2 <parse_string+0x58>
     4f0:	cb c0       	rjmp	.+406    	; 0x688 <parse_string+0x1ee>
     4f2:	86 01       	movw	r16, r12
     4f4:	60 e0       	ldi	r22, 0x00	; 0
     4f6:	70 e0       	ldi	r23, 0x00	; 0
     4f8:	0f c0       	rjmp	.+30     	; 0x518 <parse_string+0x7e>
     4fa:	ac 35       	cpi	r26, 0x5C	; 92
     4fc:	59 f4       	brne	.+22     	; 0x514 <parse_string+0x7a>
     4fe:	0f 5f       	subi	r16, 0xFF	; 255
     500:	1f 4f       	sbci	r17, 0xFF	; 255
     502:	98 01       	movw	r18, r16
     504:	24 1b       	sub	r18, r20
     506:	35 0b       	sbc	r19, r21
     508:	28 17       	cp	r18, r24
     50a:	39 07       	cpc	r19, r25
     50c:	08 f0       	brcs	.+2      	; 0x510 <parse_string+0x76>
     50e:	bf c0       	rjmp	.+382    	; 0x68e <parse_string+0x1f4>
     510:	6f 5f       	subi	r22, 0xFF	; 255
     512:	7f 4f       	sbci	r23, 0xFF	; 255
     514:	0f 5f       	subi	r16, 0xFF	; 255
     516:	1f 4f       	sbci	r17, 0xFF	; 255
     518:	38 01       	movw	r6, r16
     51a:	98 01       	movw	r18, r16
     51c:	24 1b       	sub	r18, r20
     51e:	35 0b       	sbc	r19, r21
     520:	d7 01       	movw	r26, r14
     522:	12 96       	adiw	r26, 0x02	; 2
     524:	8d 91       	ld	r24, X+
     526:	9c 91       	ld	r25, X
     528:	13 97       	sbiw	r26, 0x03	; 3
     52a:	28 17       	cp	r18, r24
     52c:	39 07       	cpc	r19, r25
     52e:	20 f4       	brcc	.+8      	; 0x538 <parse_string+0x9e>
     530:	f8 01       	movw	r30, r16
     532:	a0 81       	ld	r26, Z
     534:	a2 32       	cpi	r26, 0x22	; 34
     536:	09 f7       	brne	.-62     	; 0x4fa <parse_string+0x60>
     538:	28 17       	cp	r18, r24
     53a:	39 07       	cpc	r19, r25
     53c:	08 f0       	brcs	.+2      	; 0x540 <parse_string+0xa6>
     53e:	aa c0       	rjmp	.+340    	; 0x694 <parse_string+0x1fa>
     540:	d8 01       	movw	r26, r16
     542:	8c 91       	ld	r24, X
     544:	82 32       	cpi	r24, 0x22	; 34
     546:	09 f0       	breq	.+2      	; 0x54a <parse_string+0xb0>
     548:	a8 c0       	rjmp	.+336    	; 0x69a <parse_string+0x200>
     54a:	c3 01       	movw	r24, r6
     54c:	88 19       	sub	r24, r8
     54e:	99 09       	sbc	r25, r9
     550:	86 1b       	sub	r24, r22
     552:	97 0b       	sbc	r25, r23
     554:	d7 01       	movw	r26, r14
     556:	18 96       	adiw	r26, 0x08	; 8
     558:	ed 91       	ld	r30, X+
     55a:	fc 91       	ld	r31, X
     55c:	19 97       	sbiw	r26, 0x09	; 9
     55e:	01 96       	adiw	r24, 0x01	; 1
     560:	09 95       	icall
     562:	4c 01       	movw	r8, r24
     564:	00 97       	sbiw	r24, 0x00	; 0
     566:	09 f4       	brne	.+2      	; 0x56a <parse_string+0xd0>
     568:	9a c0       	rjmp	.+308    	; 0x69e <parse_string+0x204>
     56a:	9a 83       	std	Y+2, r25	; 0x02
     56c:	89 83       	std	Y+1, r24	; 0x01
     56e:	6e c0       	rjmp	.+220    	; 0x64c <parse_string+0x1b2>
     570:	f6 01       	movw	r30, r12
     572:	80 81       	ld	r24, Z
     574:	8c 35       	cpi	r24, 0x5C	; 92
     576:	69 f0       	breq	.+26     	; 0x592 <parse_string+0xf8>
     578:	e9 81       	ldd	r30, Y+1	; 0x01
     57a:	fa 81       	ldd	r31, Y+2	; 0x02
     57c:	cf 01       	movw	r24, r30
     57e:	01 96       	adiw	r24, 0x01	; 1
     580:	9a 83       	std	Y+2, r25	; 0x02
     582:	89 83       	std	Y+1, r24	; 0x01
     584:	d6 01       	movw	r26, r12
     586:	8c 91       	ld	r24, X
     588:	80 83       	st	Z, r24
     58a:	f6 01       	movw	r30, r12
     58c:	31 96       	adiw	r30, 0x01	; 1
     58e:	6f 01       	movw	r12, r30
     590:	5d c0       	rjmp	.+186    	; 0x64c <parse_string+0x1b2>
     592:	c3 01       	movw	r24, r6
     594:	8c 19       	sub	r24, r12
     596:	9d 09       	sbc	r25, r13
     598:	18 16       	cp	r1, r24
     59a:	19 06       	cpc	r1, r25
     59c:	0c f0       	brlt	.+2      	; 0x5a0 <parse_string+0x106>
     59e:	7f c0       	rjmp	.+254    	; 0x69e <parse_string+0x204>
     5a0:	e1 81       	ldd	r30, Z+1	; 0x01
     5a2:	8e 2f       	mov	r24, r30
     5a4:	90 e0       	ldi	r25, 0x00	; 0
     5a6:	fc 01       	movw	r30, r24
     5a8:	b2 97       	sbiw	r30, 0x22	; 34
     5aa:	e4 35       	cpi	r30, 0x54	; 84
     5ac:	f1 05       	cpc	r31, r1
     5ae:	08 f0       	brcs	.+2      	; 0x5b2 <parse_string+0x118>
     5b0:	76 c0       	rjmp	.+236    	; 0x69e <parse_string+0x204>
     5b2:	ec 5c       	subi	r30, 0xCC	; 204
     5b4:	ff 4f       	sbci	r31, 0xFF	; 255
     5b6:	0c 94 62 15 	jmp	0x2ac4	; 0x2ac4 <__tablejump2__>
     5ba:	e9 81       	ldd	r30, Y+1	; 0x01
     5bc:	fa 81       	ldd	r31, Y+2	; 0x02
     5be:	cf 01       	movw	r24, r30
     5c0:	01 96       	adiw	r24, 0x01	; 1
     5c2:	9a 83       	std	Y+2, r25	; 0x02
     5c4:	89 83       	std	Y+1, r24	; 0x01
     5c6:	88 e0       	ldi	r24, 0x08	; 8
     5c8:	80 83       	st	Z, r24
     5ca:	82 e0       	ldi	r24, 0x02	; 2
     5cc:	3d c0       	rjmp	.+122    	; 0x648 <parse_string+0x1ae>
     5ce:	e9 81       	ldd	r30, Y+1	; 0x01
     5d0:	fa 81       	ldd	r31, Y+2	; 0x02
     5d2:	cf 01       	movw	r24, r30
     5d4:	01 96       	adiw	r24, 0x01	; 1
     5d6:	9a 83       	std	Y+2, r25	; 0x02
     5d8:	89 83       	std	Y+1, r24	; 0x01
     5da:	8c e0       	ldi	r24, 0x0C	; 12
     5dc:	80 83       	st	Z, r24
     5de:	82 e0       	ldi	r24, 0x02	; 2
     5e0:	33 c0       	rjmp	.+102    	; 0x648 <parse_string+0x1ae>
     5e2:	e9 81       	ldd	r30, Y+1	; 0x01
     5e4:	fa 81       	ldd	r31, Y+2	; 0x02
     5e6:	cf 01       	movw	r24, r30
     5e8:	01 96       	adiw	r24, 0x01	; 1
     5ea:	9a 83       	std	Y+2, r25	; 0x02
     5ec:	89 83       	std	Y+1, r24	; 0x01
     5ee:	8a e0       	ldi	r24, 0x0A	; 10
     5f0:	80 83       	st	Z, r24
     5f2:	82 e0       	ldi	r24, 0x02	; 2
     5f4:	29 c0       	rjmp	.+82     	; 0x648 <parse_string+0x1ae>
     5f6:	e9 81       	ldd	r30, Y+1	; 0x01
     5f8:	fa 81       	ldd	r31, Y+2	; 0x02
     5fa:	cf 01       	movw	r24, r30
     5fc:	01 96       	adiw	r24, 0x01	; 1
     5fe:	9a 83       	std	Y+2, r25	; 0x02
     600:	89 83       	std	Y+1, r24	; 0x01
     602:	8d e0       	ldi	r24, 0x0D	; 13
     604:	80 83       	st	Z, r24
     606:	82 e0       	ldi	r24, 0x02	; 2
     608:	1f c0       	rjmp	.+62     	; 0x648 <parse_string+0x1ae>
     60a:	e9 81       	ldd	r30, Y+1	; 0x01
     60c:	fa 81       	ldd	r31, Y+2	; 0x02
     60e:	cf 01       	movw	r24, r30
     610:	01 96       	adiw	r24, 0x01	; 1
     612:	9a 83       	std	Y+2, r25	; 0x02
     614:	89 83       	std	Y+1, r24	; 0x01
     616:	89 e0       	ldi	r24, 0x09	; 9
     618:	80 83       	st	Z, r24
     61a:	82 e0       	ldi	r24, 0x02	; 2
     61c:	15 c0       	rjmp	.+42     	; 0x648 <parse_string+0x1ae>
     61e:	e9 81       	ldd	r30, Y+1	; 0x01
     620:	fa 81       	ldd	r31, Y+2	; 0x02
     622:	cf 01       	movw	r24, r30
     624:	01 96       	adiw	r24, 0x01	; 1
     626:	9a 83       	std	Y+2, r25	; 0x02
     628:	89 83       	std	Y+1, r24	; 0x01
     62a:	d6 01       	movw	r26, r12
     62c:	11 96       	adiw	r26, 0x01	; 1
     62e:	8c 91       	ld	r24, X
     630:	80 83       	st	Z, r24
     632:	82 e0       	ldi	r24, 0x02	; 2
     634:	09 c0       	rjmp	.+18     	; 0x648 <parse_string+0x1ae>
     636:	ae 01       	movw	r20, r28
     638:	4f 5f       	subi	r20, 0xFF	; 255
     63a:	5f 4f       	sbci	r21, 0xFF	; 255
     63c:	b8 01       	movw	r22, r16
     63e:	c6 01       	movw	r24, r12
     640:	0e 94 a0 01 	call	0x340	; 0x340 <utf16_literal_to_utf8>
     644:	88 23       	and	r24, r24
     646:	59 f1       	breq	.+86     	; 0x69e <parse_string+0x204>
     648:	c8 0e       	add	r12, r24
     64a:	d1 1c       	adc	r13, r1
     64c:	c0 16       	cp	r12, r16
     64e:	d1 06       	cpc	r13, r17
     650:	08 f4       	brcc	.+2      	; 0x654 <parse_string+0x1ba>
     652:	8e cf       	rjmp	.-228    	; 0x570 <parse_string+0xd6>
     654:	e9 81       	ldd	r30, Y+1	; 0x01
     656:	fa 81       	ldd	r31, Y+2	; 0x02
     658:	10 82       	st	Z, r1
     65a:	80 e1       	ldi	r24, 0x10	; 16
     65c:	90 e0       	ldi	r25, 0x00	; 0
     65e:	f5 01       	movw	r30, r10
     660:	97 83       	std	Z+7, r25	; 0x07
     662:	86 83       	std	Z+6, r24	; 0x06
     664:	91 86       	std	Z+9, r9	; 0x09
     666:	80 86       	std	Z+8, r8	; 0x08
     668:	d7 01       	movw	r26, r14
     66a:	8d 91       	ld	r24, X+
     66c:	9c 91       	ld	r25, X
     66e:	11 97       	sbiw	r26, 0x01	; 1
     670:	f3 01       	movw	r30, r6
     672:	e8 1b       	sub	r30, r24
     674:	f9 0b       	sbc	r31, r25
     676:	cf 01       	movw	r24, r30
     678:	01 96       	adiw	r24, 0x01	; 1
     67a:	15 96       	adiw	r26, 0x05	; 5
     67c:	9c 93       	st	X, r25
     67e:	8e 93       	st	-X, r24
     680:	14 97       	sbiw	r26, 0x04	; 4
     682:	81 e0       	ldi	r24, 0x01	; 1
     684:	90 e0       	ldi	r25, 0x00	; 0
     686:	24 c0       	rjmp	.+72     	; 0x6d0 <parse_string+0x236>
     688:	81 2c       	mov	r8, r1
     68a:	91 2c       	mov	r9, r1
     68c:	08 c0       	rjmp	.+16     	; 0x69e <parse_string+0x204>
     68e:	81 2c       	mov	r8, r1
     690:	91 2c       	mov	r9, r1
     692:	05 c0       	rjmp	.+10     	; 0x69e <parse_string+0x204>
     694:	81 2c       	mov	r8, r1
     696:	91 2c       	mov	r9, r1
     698:	02 c0       	rjmp	.+4      	; 0x69e <parse_string+0x204>
     69a:	81 2c       	mov	r8, r1
     69c:	91 2c       	mov	r9, r1
     69e:	81 14       	cp	r8, r1
     6a0:	91 04       	cpc	r9, r1
     6a2:	39 f0       	breq	.+14     	; 0x6b2 <parse_string+0x218>
     6a4:	d7 01       	movw	r26, r14
     6a6:	1a 96       	adiw	r26, 0x0a	; 10
     6a8:	ed 91       	ld	r30, X+
     6aa:	fc 91       	ld	r31, X
     6ac:	1b 97       	sbiw	r26, 0x0b	; 11
     6ae:	c4 01       	movw	r24, r8
     6b0:	09 95       	icall
     6b2:	c1 14       	cp	r12, r1
     6b4:	d1 04       	cpc	r13, r1
     6b6:	51 f0       	breq	.+20     	; 0x6cc <parse_string+0x232>
     6b8:	f7 01       	movw	r30, r14
     6ba:	80 81       	ld	r24, Z
     6bc:	91 81       	ldd	r25, Z+1	; 0x01
     6be:	c8 1a       	sub	r12, r24
     6c0:	d9 0a       	sbc	r13, r25
     6c2:	d5 82       	std	Z+5, r13	; 0x05
     6c4:	c4 82       	std	Z+4, r12	; 0x04
     6c6:	80 e0       	ldi	r24, 0x00	; 0
     6c8:	90 e0       	ldi	r25, 0x00	; 0
     6ca:	02 c0       	rjmp	.+4      	; 0x6d0 <parse_string+0x236>
     6cc:	80 e0       	ldi	r24, 0x00	; 0
     6ce:	90 e0       	ldi	r25, 0x00	; 0
     6d0:	0f 90       	pop	r0
     6d2:	0f 90       	pop	r0
     6d4:	df 91       	pop	r29
     6d6:	cf 91       	pop	r28
     6d8:	1f 91       	pop	r17
     6da:	0f 91       	pop	r16
     6dc:	ff 90       	pop	r15
     6de:	ef 90       	pop	r14
     6e0:	df 90       	pop	r13
     6e2:	cf 90       	pop	r12
     6e4:	bf 90       	pop	r11
     6e6:	af 90       	pop	r10
     6e8:	9f 90       	pop	r9
     6ea:	8f 90       	pop	r8
     6ec:	7f 90       	pop	r7
     6ee:	6f 90       	pop	r6
     6f0:	08 95       	ret

000006f2 <buffer_skip_whitespace>:
     6f2:	fc 01       	movw	r30, r24
     6f4:	00 97       	sbiw	r24, 0x00	; 0
     6f6:	59 f1       	breq	.+86     	; 0x74e <buffer_skip_whitespace+0x5c>
     6f8:	60 81       	ld	r22, Z
     6fa:	71 81       	ldd	r23, Z+1	; 0x01
     6fc:	61 15       	cp	r22, r1
     6fe:	71 05       	cpc	r23, r1
     700:	49 f1       	breq	.+82     	; 0x754 <buffer_skip_whitespace+0x62>
     702:	00 97       	sbiw	r24, 0x00	; 0
     704:	51 f1       	breq	.+84     	; 0x75a <buffer_skip_whitespace+0x68>
     706:	84 81       	ldd	r24, Z+4	; 0x04
     708:	95 81       	ldd	r25, Z+5	; 0x05
     70a:	42 81       	ldd	r20, Z+2	; 0x02
     70c:	53 81       	ldd	r21, Z+3	; 0x03
     70e:	84 17       	cp	r24, r20
     710:	95 07       	cpc	r25, r21
     712:	28 f0       	brcs	.+10     	; 0x71e <buffer_skip_whitespace+0x2c>
     714:	24 c0       	rjmp	.+72     	; 0x75e <buffer_skip_whitespace+0x6c>
     716:	2f 5f       	subi	r18, 0xFF	; 255
     718:	3f 4f       	sbci	r19, 0xFF	; 255
     71a:	35 83       	std	Z+5, r19	; 0x05
     71c:	24 83       	std	Z+4, r18	; 0x04
     71e:	30 97       	sbiw	r30, 0x00	; 0
     720:	59 f0       	breq	.+22     	; 0x738 <buffer_skip_whitespace+0x46>
     722:	24 81       	ldd	r18, Z+4	; 0x04
     724:	35 81       	ldd	r19, Z+5	; 0x05
     726:	24 17       	cp	r18, r20
     728:	35 07       	cpc	r19, r21
     72a:	30 f4       	brcc	.+12     	; 0x738 <buffer_skip_whitespace+0x46>
     72c:	db 01       	movw	r26, r22
     72e:	a2 0f       	add	r26, r18
     730:	b3 1f       	adc	r27, r19
     732:	8c 91       	ld	r24, X
     734:	81 32       	cpi	r24, 0x21	; 33
     736:	78 f3       	brcs	.-34     	; 0x716 <buffer_skip_whitespace+0x24>
     738:	84 81       	ldd	r24, Z+4	; 0x04
     73a:	95 81       	ldd	r25, Z+5	; 0x05
     73c:	48 17       	cp	r20, r24
     73e:	59 07       	cpc	r21, r25
     740:	89 f4       	brne	.+34     	; 0x764 <buffer_skip_whitespace+0x72>
     742:	01 97       	sbiw	r24, 0x01	; 1
     744:	95 83       	std	Z+5, r25	; 0x05
     746:	84 83       	std	Z+4, r24	; 0x04
     748:	8e 2f       	mov	r24, r30
     74a:	9f 2f       	mov	r25, r31
     74c:	08 95       	ret
     74e:	80 e0       	ldi	r24, 0x00	; 0
     750:	90 e0       	ldi	r25, 0x00	; 0
     752:	08 95       	ret
     754:	80 e0       	ldi	r24, 0x00	; 0
     756:	90 e0       	ldi	r25, 0x00	; 0
     758:	08 95       	ret
     75a:	9f 2f       	mov	r25, r31
     75c:	08 95       	ret
     75e:	8e 2f       	mov	r24, r30
     760:	9f 2f       	mov	r25, r31
     762:	08 95       	ret
     764:	8e 2f       	mov	r24, r30
     766:	9f 2f       	mov	r25, r31
     768:	08 95       	ret

0000076a <suffix_object>:
     76a:	fc 01       	movw	r30, r24
     76c:	71 83       	std	Z+1, r23	; 0x01
     76e:	60 83       	st	Z, r22
     770:	fb 01       	movw	r30, r22
     772:	93 83       	std	Z+3, r25	; 0x03
     774:	82 83       	std	Z+2, r24	; 0x02
     776:	08 95       	ret

00000778 <add_item_to_array>:
     778:	0f 93       	push	r16
     77a:	1f 93       	push	r17
     77c:	cf 93       	push	r28
     77e:	df 93       	push	r29
     780:	61 15       	cp	r22, r1
     782:	71 05       	cpc	r23, r1
     784:	61 f1       	breq	.+88     	; 0x7de <add_item_to_array+0x66>
     786:	00 97       	sbiw	r24, 0x00	; 0
     788:	69 f1       	breq	.+90     	; 0x7e4 <add_item_to_array+0x6c>
     78a:	68 17       	cp	r22, r24
     78c:	79 07       	cpc	r23, r25
     78e:	69 f1       	breq	.+90     	; 0x7ea <add_item_to_array+0x72>
     790:	dc 01       	movw	r26, r24
     792:	14 96       	adiw	r26, 0x04	; 4
     794:	ed 91       	ld	r30, X+
     796:	fc 91       	ld	r31, X
     798:	15 97       	sbiw	r26, 0x05	; 5
     79a:	30 97       	sbiw	r30, 0x00	; 0
     79c:	61 f4       	brne	.+24     	; 0x7b6 <add_item_to_array+0x3e>
     79e:	15 96       	adiw	r26, 0x05	; 5
     7a0:	7c 93       	st	X, r23
     7a2:	6e 93       	st	-X, r22
     7a4:	14 97       	sbiw	r26, 0x04	; 4
     7a6:	fb 01       	movw	r30, r22
     7a8:	73 83       	std	Z+3, r23	; 0x03
     7aa:	62 83       	std	Z+2, r22	; 0x02
     7ac:	11 82       	std	Z+1, r1	; 0x01
     7ae:	10 82       	st	Z, r1
     7b0:	81 e0       	ldi	r24, 0x01	; 1
     7b2:	90 e0       	ldi	r25, 0x00	; 0
     7b4:	1f c0       	rjmp	.+62     	; 0x7f4 <add_item_to_array+0x7c>
     7b6:	22 81       	ldd	r18, Z+2	; 0x02
     7b8:	33 81       	ldd	r19, Z+3	; 0x03
     7ba:	21 15       	cp	r18, r1
     7bc:	31 05       	cpc	r19, r1
     7be:	c1 f0       	breq	.+48     	; 0x7f0 <add_item_to_array+0x78>
     7c0:	eb 01       	movw	r28, r22
     7c2:	8c 01       	movw	r16, r24
     7c4:	c9 01       	movw	r24, r18
     7c6:	0e 94 b5 03 	call	0x76a	; 0x76a <suffix_object>
     7ca:	d8 01       	movw	r26, r16
     7cc:	14 96       	adiw	r26, 0x04	; 4
     7ce:	ed 91       	ld	r30, X+
     7d0:	fc 91       	ld	r31, X
     7d2:	15 97       	sbiw	r26, 0x05	; 5
     7d4:	d3 83       	std	Z+3, r29	; 0x03
     7d6:	c2 83       	std	Z+2, r28	; 0x02
     7d8:	81 e0       	ldi	r24, 0x01	; 1
     7da:	90 e0       	ldi	r25, 0x00	; 0
     7dc:	0b c0       	rjmp	.+22     	; 0x7f4 <add_item_to_array+0x7c>
     7de:	80 e0       	ldi	r24, 0x00	; 0
     7e0:	90 e0       	ldi	r25, 0x00	; 0
     7e2:	08 c0       	rjmp	.+16     	; 0x7f4 <add_item_to_array+0x7c>
     7e4:	80 e0       	ldi	r24, 0x00	; 0
     7e6:	90 e0       	ldi	r25, 0x00	; 0
     7e8:	05 c0       	rjmp	.+10     	; 0x7f4 <add_item_to_array+0x7c>
     7ea:	80 e0       	ldi	r24, 0x00	; 0
     7ec:	90 e0       	ldi	r25, 0x00	; 0
     7ee:	02 c0       	rjmp	.+4      	; 0x7f4 <add_item_to_array+0x7c>
     7f0:	81 e0       	ldi	r24, 0x01	; 1
     7f2:	90 e0       	ldi	r25, 0x00	; 0
     7f4:	df 91       	pop	r29
     7f6:	cf 91       	pop	r28
     7f8:	1f 91       	pop	r17
     7fa:	0f 91       	pop	r16
     7fc:	08 95       	ret

000007fe <cast_away_const>:
     7fe:	08 95       	ret

00000800 <update_offset>:
     800:	cf 93       	push	r28
     802:	df 93       	push	r29
     804:	dc 01       	movw	r26, r24
     806:	89 2b       	or	r24, r25
     808:	d1 f0       	breq	.+52     	; 0x83e <update_offset+0x3e>
     80a:	2d 91       	ld	r18, X+
     80c:	3c 91       	ld	r19, X
     80e:	11 97       	sbiw	r26, 0x01	; 1
     810:	21 15       	cp	r18, r1
     812:	31 05       	cpc	r19, r1
     814:	a1 f0       	breq	.+40     	; 0x83e <update_offset+0x3e>
     816:	14 96       	adiw	r26, 0x04	; 4
     818:	8d 91       	ld	r24, X+
     81a:	9c 91       	ld	r25, X
     81c:	15 97       	sbiw	r26, 0x05	; 5
     81e:	e9 01       	movw	r28, r18
     820:	c8 0f       	add	r28, r24
     822:	d9 1f       	adc	r29, r25
     824:	fe 01       	movw	r30, r28
     826:	01 90       	ld	r0, Z+
     828:	00 20       	and	r0, r0
     82a:	e9 f7       	brne	.-6      	; 0x826 <update_offset+0x26>
     82c:	31 97       	sbiw	r30, 0x01	; 1
     82e:	ec 1b       	sub	r30, r28
     830:	fd 0b       	sbc	r31, r29
     832:	e8 0f       	add	r30, r24
     834:	f9 1f       	adc	r31, r25
     836:	15 96       	adiw	r26, 0x05	; 5
     838:	fc 93       	st	X, r31
     83a:	ee 93       	st	-X, r30
     83c:	14 97       	sbiw	r26, 0x04	; 4
     83e:	df 91       	pop	r29
     840:	cf 91       	pop	r28
     842:	08 95       	ret

00000844 <cJSON_strdup>:
     844:	ef 92       	push	r14
     846:	ff 92       	push	r15
     848:	0f 93       	push	r16
     84a:	1f 93       	push	r17
     84c:	cf 93       	push	r28
     84e:	df 93       	push	r29
     850:	00 97       	sbiw	r24, 0x00	; 0
     852:	c9 f0       	breq	.+50     	; 0x886 <cJSON_strdup+0x42>
     854:	db 01       	movw	r26, r22
     856:	8c 01       	movw	r16, r24
     858:	fc 01       	movw	r30, r24
     85a:	01 90       	ld	r0, Z+
     85c:	00 20       	and	r0, r0
     85e:	e9 f7       	brne	.-6      	; 0x85a <cJSON_strdup+0x16>
     860:	31 97       	sbiw	r30, 0x01	; 1
     862:	e8 1b       	sub	r30, r24
     864:	f9 0b       	sbc	r31, r25
     866:	ef 01       	movw	r28, r30
     868:	21 96       	adiw	r28, 0x01	; 1
     86a:	ed 91       	ld	r30, X+
     86c:	fc 91       	ld	r31, X
     86e:	ce 01       	movw	r24, r28
     870:	09 95       	icall
     872:	7c 01       	movw	r14, r24
     874:	00 97       	sbiw	r24, 0x00	; 0
     876:	51 f0       	breq	.+20     	; 0x88c <cJSON_strdup+0x48>
     878:	ae 01       	movw	r20, r28
     87a:	b8 01       	movw	r22, r16
     87c:	0e 94 c6 18 	call	0x318c	; 0x318c <memcpy>
     880:	8e 2d       	mov	r24, r14
     882:	9f 2d       	mov	r25, r15
     884:	05 c0       	rjmp	.+10     	; 0x890 <cJSON_strdup+0x4c>
     886:	80 e0       	ldi	r24, 0x00	; 0
     888:	90 e0       	ldi	r25, 0x00	; 0
     88a:	02 c0       	rjmp	.+4      	; 0x890 <cJSON_strdup+0x4c>
     88c:	80 e0       	ldi	r24, 0x00	; 0
     88e:	90 e0       	ldi	r25, 0x00	; 0
     890:	df 91       	pop	r29
     892:	cf 91       	pop	r28
     894:	1f 91       	pop	r17
     896:	0f 91       	pop	r16
     898:	ff 90       	pop	r15
     89a:	ef 90       	pop	r14
     89c:	08 95       	ret

0000089e <add_item_to_object>:
     89e:	af 92       	push	r10
     8a0:	bf 92       	push	r11
     8a2:	cf 92       	push	r12
     8a4:	df 92       	push	r13
     8a6:	ef 92       	push	r14
     8a8:	ff 92       	push	r15
     8aa:	0f 93       	push	r16
     8ac:	1f 93       	push	r17
     8ae:	cf 93       	push	r28
     8b0:	df 93       	push	r29
     8b2:	00 97       	sbiw	r24, 0x00	; 0
     8b4:	c1 f1       	breq	.+112    	; 0x926 <__stack+0x27>
     8b6:	61 15       	cp	r22, r1
     8b8:	71 05       	cpc	r23, r1
     8ba:	c1 f1       	breq	.+112    	; 0x92c <__stack+0x2d>
     8bc:	41 15       	cp	r20, r1
     8be:	51 05       	cpc	r21, r1
     8c0:	c1 f1       	breq	.+112    	; 0x932 <__stack+0x33>
     8c2:	84 17       	cp	r24, r20
     8c4:	95 07       	cpc	r25, r21
     8c6:	c1 f1       	breq	.+112    	; 0x938 <__stack+0x39>
     8c8:	79 01       	movw	r14, r18
     8ca:	ea 01       	movw	r28, r20
     8cc:	ab 01       	movw	r20, r22
     8ce:	6c 01       	movw	r12, r24
     8d0:	01 2b       	or	r16, r17
     8d2:	41 f0       	breq	.+16     	; 0x8e4 <add_item_to_object+0x46>
     8d4:	cb 01       	movw	r24, r22
     8d6:	0e 94 ff 03 	call	0x7fe	; 0x7fe <cast_away_const>
     8da:	5c 01       	movw	r10, r24
     8dc:	0e 81       	ldd	r16, Y+6	; 0x06
     8de:	1f 81       	ldd	r17, Y+7	; 0x07
     8e0:	12 60       	ori	r17, 0x02	; 2
     8e2:	0a c0       	rjmp	.+20     	; 0x8f8 <add_item_to_object+0x5a>
     8e4:	b9 01       	movw	r22, r18
     8e6:	ca 01       	movw	r24, r20
     8e8:	0e 94 22 04 	call	0x844	; 0x844 <cJSON_strdup>
     8ec:	5c 01       	movw	r10, r24
     8ee:	89 2b       	or	r24, r25
     8f0:	31 f1       	breq	.+76     	; 0x93e <__stack+0x3f>
     8f2:	0e 81       	ldd	r16, Y+6	; 0x06
     8f4:	1f 81       	ldd	r17, Y+7	; 0x07
     8f6:	1d 7f       	andi	r17, 0xFD	; 253
     8f8:	8e 81       	ldd	r24, Y+6	; 0x06
     8fa:	9f 81       	ldd	r25, Y+7	; 0x07
     8fc:	91 fd       	sbrc	r25, 1
     8fe:	0a c0       	rjmp	.+20     	; 0x914 <__stack+0x15>
     900:	88 89       	ldd	r24, Y+16	; 0x10
     902:	99 89       	ldd	r25, Y+17	; 0x11
     904:	00 97       	sbiw	r24, 0x00	; 0
     906:	31 f0       	breq	.+12     	; 0x914 <__stack+0x15>
     908:	d7 01       	movw	r26, r14
     90a:	12 96       	adiw	r26, 0x02	; 2
     90c:	ed 91       	ld	r30, X+
     90e:	fc 91       	ld	r31, X
     910:	13 97       	sbiw	r26, 0x03	; 3
     912:	09 95       	icall
     914:	b9 8a       	std	Y+17, r11	; 0x11
     916:	a8 8a       	std	Y+16, r10	; 0x10
     918:	1f 83       	std	Y+7, r17	; 0x07
     91a:	0e 83       	std	Y+6, r16	; 0x06
     91c:	be 01       	movw	r22, r28
     91e:	c6 01       	movw	r24, r12
     920:	0e 94 bc 03 	call	0x778	; 0x778 <add_item_to_array>
     924:	0e c0       	rjmp	.+28     	; 0x942 <__stack+0x43>
     926:	80 e0       	ldi	r24, 0x00	; 0
     928:	90 e0       	ldi	r25, 0x00	; 0
     92a:	0b c0       	rjmp	.+22     	; 0x942 <__stack+0x43>
     92c:	80 e0       	ldi	r24, 0x00	; 0
     92e:	90 e0       	ldi	r25, 0x00	; 0
     930:	08 c0       	rjmp	.+16     	; 0x942 <__stack+0x43>
     932:	80 e0       	ldi	r24, 0x00	; 0
     934:	90 e0       	ldi	r25, 0x00	; 0
     936:	05 c0       	rjmp	.+10     	; 0x942 <__stack+0x43>
     938:	80 e0       	ldi	r24, 0x00	; 0
     93a:	90 e0       	ldi	r25, 0x00	; 0
     93c:	02 c0       	rjmp	.+4      	; 0x942 <__stack+0x43>
     93e:	80 e0       	ldi	r24, 0x00	; 0
     940:	90 e0       	ldi	r25, 0x00	; 0
     942:	df 91       	pop	r29
     944:	cf 91       	pop	r28
     946:	1f 91       	pop	r17
     948:	0f 91       	pop	r16
     94a:	ff 90       	pop	r15
     94c:	ef 90       	pop	r14
     94e:	df 90       	pop	r13
     950:	cf 90       	pop	r12
     952:	bf 90       	pop	r11
     954:	af 90       	pop	r10
     956:	08 95       	ret

00000958 <ensure>:
     958:	ef 92       	push	r14
     95a:	ff 92       	push	r15
     95c:	0f 93       	push	r16
     95e:	1f 93       	push	r17
     960:	cf 93       	push	r28
     962:	df 93       	push	r29
     964:	fc 01       	movw	r30, r24
     966:	89 2b       	or	r24, r25
     968:	09 f4       	brne	.+2      	; 0x96c <ensure+0x14>
     96a:	73 c0       	rjmp	.+230    	; 0xa52 <ensure+0xfa>
     96c:	80 81       	ld	r24, Z
     96e:	91 81       	ldd	r25, Z+1	; 0x01
     970:	00 97       	sbiw	r24, 0x00	; 0
     972:	09 f4       	brne	.+2      	; 0x976 <ensure+0x1e>
     974:	79 c0       	rjmp	.+242    	; 0xa68 <ensure+0x110>
     976:	22 81       	ldd	r18, Z+2	; 0x02
     978:	33 81       	ldd	r19, Z+3	; 0x03
     97a:	21 15       	cp	r18, r1
     97c:	31 05       	cpc	r19, r1
     97e:	31 f0       	breq	.+12     	; 0x98c <ensure+0x34>
     980:	44 81       	ldd	r20, Z+4	; 0x04
     982:	55 81       	ldd	r21, Z+5	; 0x05
     984:	42 17       	cp	r20, r18
     986:	53 07       	cpc	r21, r19
     988:	08 f0       	brcs	.+2      	; 0x98c <ensure+0x34>
     98a:	66 c0       	rjmp	.+204    	; 0xa58 <ensure+0x100>
     98c:	77 23       	and	r23, r23
     98e:	0c f4       	brge	.+2      	; 0x992 <ensure+0x3a>
     990:	66 c0       	rjmp	.+204    	; 0xa5e <ensure+0x106>
     992:	44 81       	ldd	r20, Z+4	; 0x04
     994:	55 81       	ldd	r21, Z+5	; 0x05
     996:	64 0f       	add	r22, r20
     998:	75 1f       	adc	r23, r21
     99a:	6f 5f       	subi	r22, 0xFF	; 255
     99c:	7f 4f       	sbci	r23, 0xFF	; 255
     99e:	26 17       	cp	r18, r22
     9a0:	37 07       	cpc	r19, r23
     9a2:	18 f0       	brcs	.+6      	; 0x9aa <ensure+0x52>
     9a4:	84 0f       	add	r24, r20
     9a6:	95 1f       	adc	r25, r21
     9a8:	5f c0       	rjmp	.+190    	; 0xa68 <ensure+0x110>
     9aa:	20 85       	ldd	r18, Z+8	; 0x08
     9ac:	31 85       	ldd	r19, Z+9	; 0x09
     9ae:	23 2b       	or	r18, r19
     9b0:	09 f0       	breq	.+2      	; 0x9b4 <ensure+0x5c>
     9b2:	58 c0       	rjmp	.+176    	; 0xa64 <ensure+0x10c>
     9b4:	61 15       	cp	r22, r1
     9b6:	20 e4       	ldi	r18, 0x40	; 64
     9b8:	72 07       	cpc	r23, r18
     9ba:	28 f0       	brcs	.+10     	; 0x9c6 <ensure+0x6e>
     9bc:	77 23       	and	r23, r23
     9be:	3c f4       	brge	.+14     	; 0x9ce <ensure+0x76>
     9c0:	80 e0       	ldi	r24, 0x00	; 0
     9c2:	90 e0       	ldi	r25, 0x00	; 0
     9c4:	51 c0       	rjmp	.+162    	; 0xa68 <ensure+0x110>
     9c6:	8b 01       	movw	r16, r22
     9c8:	00 0f       	add	r16, r16
     9ca:	11 1f       	adc	r17, r17
     9cc:	02 c0       	rjmp	.+4      	; 0x9d2 <ensure+0x7a>
     9ce:	0f ef       	ldi	r16, 0xFF	; 255
     9d0:	1f e7       	ldi	r17, 0x7F	; 127
     9d2:	ef 01       	movw	r28, r30
     9d4:	00 88       	ldd	r0, Z+16	; 0x10
     9d6:	f1 89       	ldd	r31, Z+17	; 0x11
     9d8:	e0 2d       	mov	r30, r0
     9da:	30 97       	sbiw	r30, 0x00	; 0
     9dc:	89 f0       	breq	.+34     	; 0xa00 <ensure+0xa8>
     9de:	b8 01       	movw	r22, r16
     9e0:	09 95       	icall
     9e2:	7c 01       	movw	r14, r24
     9e4:	89 2b       	or	r24, r25
     9e6:	61 f5       	brne	.+88     	; 0xa40 <ensure+0xe8>
     9e8:	ee 85       	ldd	r30, Y+14	; 0x0e
     9ea:	ff 85       	ldd	r31, Y+15	; 0x0f
     9ec:	88 81       	ld	r24, Y
     9ee:	99 81       	ldd	r25, Y+1	; 0x01
     9f0:	09 95       	icall
     9f2:	1b 82       	std	Y+3, r1	; 0x03
     9f4:	1a 82       	std	Y+2, r1	; 0x02
     9f6:	19 82       	std	Y+1, r1	; 0x01
     9f8:	18 82       	st	Y, r1
     9fa:	80 e0       	ldi	r24, 0x00	; 0
     9fc:	90 e0       	ldi	r25, 0x00	; 0
     9fe:	34 c0       	rjmp	.+104    	; 0xa68 <ensure+0x110>
     a00:	ec 85       	ldd	r30, Y+12	; 0x0c
     a02:	fd 85       	ldd	r31, Y+13	; 0x0d
     a04:	c8 01       	movw	r24, r16
     a06:	09 95       	icall
     a08:	7c 01       	movw	r14, r24
     a0a:	00 97       	sbiw	r24, 0x00	; 0
     a0c:	61 f4       	brne	.+24     	; 0xa26 <ensure+0xce>
     a0e:	ee 85       	ldd	r30, Y+14	; 0x0e
     a10:	ff 85       	ldd	r31, Y+15	; 0x0f
     a12:	88 81       	ld	r24, Y
     a14:	99 81       	ldd	r25, Y+1	; 0x01
     a16:	09 95       	icall
     a18:	1b 82       	std	Y+3, r1	; 0x03
     a1a:	1a 82       	std	Y+2, r1	; 0x02
     a1c:	19 82       	std	Y+1, r1	; 0x01
     a1e:	18 82       	st	Y, r1
     a20:	80 e0       	ldi	r24, 0x00	; 0
     a22:	90 e0       	ldi	r25, 0x00	; 0
     a24:	21 c0       	rjmp	.+66     	; 0xa68 <ensure+0x110>
     a26:	4c 81       	ldd	r20, Y+4	; 0x04
     a28:	5d 81       	ldd	r21, Y+5	; 0x05
     a2a:	68 81       	ld	r22, Y
     a2c:	79 81       	ldd	r23, Y+1	; 0x01
     a2e:	4f 5f       	subi	r20, 0xFF	; 255
     a30:	5f 4f       	sbci	r21, 0xFF	; 255
     a32:	0e 94 c6 18 	call	0x318c	; 0x318c <memcpy>
     a36:	ee 85       	ldd	r30, Y+14	; 0x0e
     a38:	ff 85       	ldd	r31, Y+15	; 0x0f
     a3a:	88 81       	ld	r24, Y
     a3c:	99 81       	ldd	r25, Y+1	; 0x01
     a3e:	09 95       	icall
     a40:	1b 83       	std	Y+3, r17	; 0x03
     a42:	0a 83       	std	Y+2, r16	; 0x02
     a44:	f9 82       	std	Y+1, r15	; 0x01
     a46:	e8 82       	st	Y, r14
     a48:	8c 81       	ldd	r24, Y+4	; 0x04
     a4a:	9d 81       	ldd	r25, Y+5	; 0x05
     a4c:	8e 0d       	add	r24, r14
     a4e:	9f 1d       	adc	r25, r15
     a50:	0b c0       	rjmp	.+22     	; 0xa68 <ensure+0x110>
     a52:	80 e0       	ldi	r24, 0x00	; 0
     a54:	90 e0       	ldi	r25, 0x00	; 0
     a56:	08 c0       	rjmp	.+16     	; 0xa68 <ensure+0x110>
     a58:	80 e0       	ldi	r24, 0x00	; 0
     a5a:	90 e0       	ldi	r25, 0x00	; 0
     a5c:	05 c0       	rjmp	.+10     	; 0xa68 <ensure+0x110>
     a5e:	80 e0       	ldi	r24, 0x00	; 0
     a60:	90 e0       	ldi	r25, 0x00	; 0
     a62:	02 c0       	rjmp	.+4      	; 0xa68 <ensure+0x110>
     a64:	80 e0       	ldi	r24, 0x00	; 0
     a66:	90 e0       	ldi	r25, 0x00	; 0
     a68:	df 91       	pop	r29
     a6a:	cf 91       	pop	r28
     a6c:	1f 91       	pop	r17
     a6e:	0f 91       	pop	r16
     a70:	ff 90       	pop	r15
     a72:	ef 90       	pop	r14
     a74:	08 95       	ret

00000a76 <cJSON_New_Item>:
     a76:	dc 01       	movw	r26, r24
     a78:	ed 91       	ld	r30, X+
     a7a:	fc 91       	ld	r31, X
     a7c:	82 e1       	ldi	r24, 0x12	; 18
     a7e:	90 e0       	ldi	r25, 0x00	; 0
     a80:	09 95       	icall
     a82:	00 97       	sbiw	r24, 0x00	; 0
     a84:	29 f0       	breq	.+10     	; 0xa90 <cJSON_New_Item+0x1a>
     a86:	22 e1       	ldi	r18, 0x12	; 18
     a88:	fc 01       	movw	r30, r24
     a8a:	11 92       	st	Z+, r1
     a8c:	2a 95       	dec	r18
     a8e:	e9 f7       	brne	.-6      	; 0xa8a <cJSON_New_Item+0x14>
     a90:	08 95       	ret

00000a92 <skip_utf8_bom>:
     a92:	0f 93       	push	r16
     a94:	1f 93       	push	r17
     a96:	cf 93       	push	r28
     a98:	df 93       	push	r29
     a9a:	fc 01       	movw	r30, r24
     a9c:	89 2b       	or	r24, r25
     a9e:	29 f1       	breq	.+74     	; 0xaea <skip_utf8_bom+0x58>
     aa0:	80 81       	ld	r24, Z
     aa2:	91 81       	ldd	r25, Z+1	; 0x01
     aa4:	00 97       	sbiw	r24, 0x00	; 0
     aa6:	21 f1       	breq	.+72     	; 0xaf0 <skip_utf8_bom+0x5e>
     aa8:	04 81       	ldd	r16, Z+4	; 0x04
     aaa:	15 81       	ldd	r17, Z+5	; 0x05
     aac:	01 15       	cp	r16, r1
     aae:	11 05       	cpc	r17, r1
     ab0:	11 f5       	brne	.+68     	; 0xaf6 <skip_utf8_bom+0x64>
     ab2:	30 97       	sbiw	r30, 0x00	; 0
     ab4:	19 f1       	breq	.+70     	; 0xafc <skip_utf8_bom+0x6a>
     ab6:	42 81       	ldd	r20, Z+2	; 0x02
     ab8:	53 81       	ldd	r21, Z+3	; 0x03
     aba:	98 01       	movw	r18, r16
     abc:	2c 5f       	subi	r18, 0xFC	; 252
     abe:	3f 4f       	sbci	r19, 0xFF	; 255
     ac0:	24 17       	cp	r18, r20
     ac2:	35 07       	cpc	r19, r21
     ac4:	f0 f4       	brcc	.+60     	; 0xb02 <skip_utf8_bom+0x70>
     ac6:	ef 01       	movw	r28, r30
     ac8:	43 e0       	ldi	r20, 0x03	; 3
     aca:	50 e0       	ldi	r21, 0x00	; 0
     acc:	6c e0       	ldi	r22, 0x0C	; 12
     ace:	71 e0       	ldi	r23, 0x01	; 1
     ad0:	80 0f       	add	r24, r16
     ad2:	91 1f       	adc	r25, r17
     ad4:	0e 94 d8 18 	call	0x31b0	; 0x31b0 <strncmp>
     ad8:	89 2b       	or	r24, r25
     ada:	b1 f4       	brne	.+44     	; 0xb08 <skip_utf8_bom+0x76>
     adc:	0d 5f       	subi	r16, 0xFD	; 253
     ade:	1f 4f       	sbci	r17, 0xFF	; 255
     ae0:	1d 83       	std	Y+5, r17	; 0x05
     ae2:	0c 83       	std	Y+4, r16	; 0x04
     ae4:	8c 2f       	mov	r24, r28
     ae6:	9d 2f       	mov	r25, r29
     ae8:	11 c0       	rjmp	.+34     	; 0xb0c <skip_utf8_bom+0x7a>
     aea:	80 e0       	ldi	r24, 0x00	; 0
     aec:	90 e0       	ldi	r25, 0x00	; 0
     aee:	0e c0       	rjmp	.+28     	; 0xb0c <skip_utf8_bom+0x7a>
     af0:	80 e0       	ldi	r24, 0x00	; 0
     af2:	90 e0       	ldi	r25, 0x00	; 0
     af4:	0b c0       	rjmp	.+22     	; 0xb0c <skip_utf8_bom+0x7a>
     af6:	80 e0       	ldi	r24, 0x00	; 0
     af8:	90 e0       	ldi	r25, 0x00	; 0
     afa:	08 c0       	rjmp	.+16     	; 0xb0c <skip_utf8_bom+0x7a>
     afc:	8e 2f       	mov	r24, r30
     afe:	9f 2f       	mov	r25, r31
     b00:	05 c0       	rjmp	.+10     	; 0xb0c <skip_utf8_bom+0x7a>
     b02:	8e 2f       	mov	r24, r30
     b04:	9f 2f       	mov	r25, r31
     b06:	02 c0       	rjmp	.+4      	; 0xb0c <skip_utf8_bom+0x7a>
     b08:	8c 2f       	mov	r24, r28
     b0a:	9d 2f       	mov	r25, r29
     b0c:	df 91       	pop	r29
     b0e:	cf 91       	pop	r28
     b10:	1f 91       	pop	r17
     b12:	0f 91       	pop	r16
     b14:	08 95       	ret

00000b16 <parse_number>:
     b16:	6f 92       	push	r6
     b18:	7f 92       	push	r7
     b1a:	8f 92       	push	r8
     b1c:	9f 92       	push	r9
     b1e:	af 92       	push	r10
     b20:	bf 92       	push	r11
     b22:	cf 92       	push	r12
     b24:	df 92       	push	r13
     b26:	ef 92       	push	r14
     b28:	ff 92       	push	r15
     b2a:	0f 93       	push	r16
     b2c:	1f 93       	push	r17
     b2e:	cf 93       	push	r28
     b30:	df 93       	push	r29
     b32:	00 d0       	rcall	.+0      	; 0xb34 <parse_number+0x1e>
     b34:	cd b7       	in	r28, 0x3d	; 61
     b36:	de b7       	in	r29, 0x3e	; 62
     b38:	6c 01       	movw	r12, r24
     b3a:	8b 01       	movw	r16, r22
     b3c:	1a 82       	std	Y+2, r1	; 0x02
     b3e:	19 82       	std	Y+1, r1	; 0x01
     b40:	0e 94 06 01 	call	0x20c	; 0x20c <get_decimal_point>
     b44:	98 2e       	mov	r9, r24
     b46:	01 15       	cp	r16, r1
     b48:	11 05       	cpc	r17, r1
     b4a:	09 f4       	brne	.+2      	; 0xb4e <parse_number+0x38>
     b4c:	c5 c0       	rjmp	.+394    	; 0xcd8 <parse_number+0x1c2>
     b4e:	d8 01       	movw	r26, r16
     b50:	2d 91       	ld	r18, X+
     b52:	3c 91       	ld	r19, X
     b54:	21 15       	cp	r18, r1
     b56:	31 05       	cpc	r19, r1
     b58:	09 f4       	brne	.+2      	; 0xb5c <parse_number+0x46>
     b5a:	c1 c0       	rjmp	.+386    	; 0xcde <parse_number+0x1c8>
     b5c:	a1 2c       	mov	r10, r1
     b5e:	b1 2c       	mov	r11, r1
     b60:	e1 2c       	mov	r14, r1
     b62:	f1 2c       	mov	r15, r1
     b64:	80 e0       	ldi	r24, 0x00	; 0
     b66:	90 e0       	ldi	r25, 0x00	; 0
     b68:	1a c0       	rjmp	.+52     	; 0xb9e <parse_number+0x88>
     b6a:	f9 01       	movw	r30, r18
     b6c:	e4 0f       	add	r30, r20
     b6e:	f5 1f       	adc	r31, r21
     b70:	e0 81       	ld	r30, Z
     b72:	4e 2f       	mov	r20, r30
     b74:	50 e0       	ldi	r21, 0x00	; 0
     b76:	fa 01       	movw	r30, r20
     b78:	bb 97       	sbiw	r30, 0x2b	; 43
     b7a:	eb 33       	cpi	r30, 0x3B	; 59
     b7c:	f1 05       	cpc	r31, r1
     b7e:	00 f5       	brcc	.+64     	; 0xbc0 <parse_number+0xaa>
     b80:	e8 57       	subi	r30, 0x78	; 120
     b82:	ff 4f       	sbci	r31, 0xFF	; 255
     b84:	0c 94 62 15 	jmp	0x2ac4	; 0x2ac4 <__tablejump2__>
     b88:	bf ef       	ldi	r27, 0xFF	; 255
     b8a:	eb 1a       	sub	r14, r27
     b8c:	fb 0a       	sbc	r15, r27
     b8e:	06 c0       	rjmp	.+12     	; 0xb9c <parse_number+0x86>
     b90:	ef ef       	ldi	r30, 0xFF	; 255
     b92:	ee 1a       	sub	r14, r30
     b94:	fe 0a       	sbc	r15, r30
     b96:	aa 24       	eor	r10, r10
     b98:	a3 94       	inc	r10
     b9a:	b1 2c       	mov	r11, r1
     b9c:	01 96       	adiw	r24, 0x01	; 1
     b9e:	01 15       	cp	r16, r1
     ba0:	11 05       	cpc	r17, r1
     ba2:	71 f0       	breq	.+28     	; 0xbc0 <parse_number+0xaa>
     ba4:	d8 01       	movw	r26, r16
     ba6:	14 96       	adiw	r26, 0x04	; 4
     ba8:	4d 91       	ld	r20, X+
     baa:	5c 91       	ld	r21, X
     bac:	15 97       	sbiw	r26, 0x05	; 5
     bae:	48 0f       	add	r20, r24
     bb0:	59 1f       	adc	r21, r25
     bb2:	12 96       	adiw	r26, 0x02	; 2
     bb4:	6d 91       	ld	r22, X+
     bb6:	7c 91       	ld	r23, X
     bb8:	13 97       	sbiw	r26, 0x03	; 3
     bba:	46 17       	cp	r20, r22
     bbc:	57 07       	cpc	r21, r23
     bbe:	a8 f2       	brcs	.-86     	; 0xb6a <parse_number+0x54>
     bc0:	d8 01       	movw	r26, r16
     bc2:	18 96       	adiw	r26, 0x08	; 8
     bc4:	ed 91       	ld	r30, X+
     bc6:	fc 91       	ld	r31, X
     bc8:	19 97       	sbiw	r26, 0x09	; 9
     bca:	c7 01       	movw	r24, r14
     bcc:	01 96       	adiw	r24, 0x01	; 1
     bce:	09 95       	icall
     bd0:	3c 01       	movw	r6, r24
     bd2:	89 2b       	or	r24, r25
     bd4:	09 f4       	brne	.+2      	; 0xbd8 <parse_number+0xc2>
     bd6:	86 c0       	rjmp	.+268    	; 0xce4 <parse_number+0x1ce>
     bd8:	f8 01       	movw	r30, r16
     bda:	60 81       	ld	r22, Z
     bdc:	71 81       	ldd	r23, Z+1	; 0x01
     bde:	84 81       	ldd	r24, Z+4	; 0x04
     be0:	95 81       	ldd	r25, Z+5	; 0x05
     be2:	68 0f       	add	r22, r24
     be4:	79 1f       	adc	r23, r25
     be6:	a7 01       	movw	r20, r14
     be8:	c3 01       	movw	r24, r6
     bea:	0e 94 c6 18 	call	0x318c	; 0x318c <memcpy>
     bee:	f3 01       	movw	r30, r6
     bf0:	ee 0d       	add	r30, r14
     bf2:	ff 1d       	adc	r31, r15
     bf4:	10 82       	st	Z, r1
     bf6:	ab 28       	or	r10, r11
     bf8:	51 f4       	brne	.+20     	; 0xc0e <parse_number+0xf8>
     bfa:	0e c0       	rjmp	.+28     	; 0xc18 <parse_number+0x102>
     bfc:	f3 01       	movw	r30, r6
     bfe:	e8 0f       	add	r30, r24
     c00:	f9 1f       	adc	r31, r25
     c02:	20 81       	ld	r18, Z
     c04:	2e 32       	cpi	r18, 0x2E	; 46
     c06:	09 f4       	brne	.+2      	; 0xc0a <parse_number+0xf4>
     c08:	90 82       	st	Z, r9
     c0a:	01 96       	adiw	r24, 0x01	; 1
     c0c:	02 c0       	rjmp	.+4      	; 0xc12 <parse_number+0xfc>
     c0e:	80 e0       	ldi	r24, 0x00	; 0
     c10:	90 e0       	ldi	r25, 0x00	; 0
     c12:	8e 15       	cp	r24, r14
     c14:	9f 05       	cpc	r25, r15
     c16:	90 f3       	brcs	.-28     	; 0xbfc <parse_number+0xe6>
     c18:	be 01       	movw	r22, r28
     c1a:	6f 5f       	subi	r22, 0xFF	; 255
     c1c:	7f 4f       	sbci	r23, 0xFF	; 255
     c1e:	c3 01       	movw	r24, r6
     c20:	0e 94 4f 17 	call	0x2e9e	; 0x2e9e <strtod>
     c24:	4b 01       	movw	r8, r22
     c26:	5c 01       	movw	r10, r24
     c28:	e9 80       	ldd	r14, Y+1	; 0x01
     c2a:	fa 80       	ldd	r15, Y+2	; 0x02
     c2c:	6e 14       	cp	r6, r14
     c2e:	7f 04       	cpc	r7, r15
     c30:	51 f4       	brne	.+20     	; 0xc46 <parse_number+0x130>
     c32:	d8 01       	movw	r26, r16
     c34:	1a 96       	adiw	r26, 0x0a	; 10
     c36:	ed 91       	ld	r30, X+
     c38:	fc 91       	ld	r31, X
     c3a:	1b 97       	sbiw	r26, 0x0b	; 11
     c3c:	c3 01       	movw	r24, r6
     c3e:	09 95       	icall
     c40:	80 e0       	ldi	r24, 0x00	; 0
     c42:	90 e0       	ldi	r25, 0x00	; 0
     c44:	51 c0       	rjmp	.+162    	; 0xce8 <parse_number+0x1d2>
     c46:	f6 01       	movw	r30, r12
     c48:	64 87       	std	Z+12, r22	; 0x0c
     c4a:	75 87       	std	Z+13, r23	; 0x0d
     c4c:	86 87       	std	Z+14, r24	; 0x0e
     c4e:	97 87       	std	Z+15, r25	; 0x0f
     c50:	20 e0       	ldi	r18, 0x00	; 0
     c52:	3e ef       	ldi	r19, 0xFE	; 254
     c54:	4f ef       	ldi	r20, 0xFF	; 255
     c56:	56 e4       	ldi	r21, 0x46	; 70
     c58:	0e 94 ce 14 	call	0x299c	; 0x299c <__gesf2>
     c5c:	88 23       	and	r24, r24
     c5e:	44 f0       	brlt	.+16     	; 0xc70 <parse_number+0x15a>
     c60:	8f ef       	ldi	r24, 0xFF	; 255
     c62:	9f e7       	ldi	r25, 0x7F	; 127
     c64:	d6 01       	movw	r26, r12
     c66:	1b 96       	adiw	r26, 0x0b	; 11
     c68:	9c 93       	st	X, r25
     c6a:	8e 93       	st	-X, r24
     c6c:	1a 97       	sbiw	r26, 0x0a	; 10
     c6e:	19 c0       	rjmp	.+50     	; 0xca2 <parse_number+0x18c>
     c70:	20 e0       	ldi	r18, 0x00	; 0
     c72:	30 e0       	ldi	r19, 0x00	; 0
     c74:	40 e0       	ldi	r20, 0x00	; 0
     c76:	57 ec       	ldi	r21, 0xC7	; 199
     c78:	c5 01       	movw	r24, r10
     c7a:	b4 01       	movw	r22, r8
     c7c:	0e 94 e1 13 	call	0x27c2	; 0x27c2 <__cmpsf2>
     c80:	18 16       	cp	r1, r24
     c82:	34 f0       	brlt	.+12     	; 0xc90 <parse_number+0x17a>
     c84:	80 e0       	ldi	r24, 0x00	; 0
     c86:	90 e8       	ldi	r25, 0x80	; 128
     c88:	f6 01       	movw	r30, r12
     c8a:	93 87       	std	Z+11, r25	; 0x0b
     c8c:	82 87       	std	Z+10, r24	; 0x0a
     c8e:	09 c0       	rjmp	.+18     	; 0xca2 <parse_number+0x18c>
     c90:	c5 01       	movw	r24, r10
     c92:	b4 01       	movw	r22, r8
     c94:	0e 94 e6 13 	call	0x27cc	; 0x27cc <__fixsfsi>
     c98:	d6 01       	movw	r26, r12
     c9a:	1b 96       	adiw	r26, 0x0b	; 11
     c9c:	7c 93       	st	X, r23
     c9e:	6e 93       	st	-X, r22
     ca0:	1a 97       	sbiw	r26, 0x0a	; 10
     ca2:	88 e0       	ldi	r24, 0x08	; 8
     ca4:	90 e0       	ldi	r25, 0x00	; 0
     ca6:	f6 01       	movw	r30, r12
     ca8:	97 83       	std	Z+7, r25	; 0x07
     caa:	86 83       	std	Z+6, r24	; 0x06
     cac:	e6 18       	sub	r14, r6
     cae:	f7 08       	sbc	r15, r7
     cb0:	d8 01       	movw	r26, r16
     cb2:	14 96       	adiw	r26, 0x04	; 4
     cb4:	8d 91       	ld	r24, X+
     cb6:	9c 91       	ld	r25, X
     cb8:	15 97       	sbiw	r26, 0x05	; 5
     cba:	e8 0e       	add	r14, r24
     cbc:	f9 1e       	adc	r15, r25
     cbe:	15 96       	adiw	r26, 0x05	; 5
     cc0:	fc 92       	st	X, r15
     cc2:	ee 92       	st	-X, r14
     cc4:	14 97       	sbiw	r26, 0x04	; 4
     cc6:	1a 96       	adiw	r26, 0x0a	; 10
     cc8:	ed 91       	ld	r30, X+
     cca:	fc 91       	ld	r31, X
     ccc:	1b 97       	sbiw	r26, 0x0b	; 11
     cce:	c3 01       	movw	r24, r6
     cd0:	09 95       	icall
     cd2:	81 e0       	ldi	r24, 0x01	; 1
     cd4:	90 e0       	ldi	r25, 0x00	; 0
     cd6:	08 c0       	rjmp	.+16     	; 0xce8 <parse_number+0x1d2>
     cd8:	80 e0       	ldi	r24, 0x00	; 0
     cda:	90 e0       	ldi	r25, 0x00	; 0
     cdc:	05 c0       	rjmp	.+10     	; 0xce8 <parse_number+0x1d2>
     cde:	80 e0       	ldi	r24, 0x00	; 0
     ce0:	90 e0       	ldi	r25, 0x00	; 0
     ce2:	02 c0       	rjmp	.+4      	; 0xce8 <parse_number+0x1d2>
     ce4:	80 e0       	ldi	r24, 0x00	; 0
     ce6:	90 e0       	ldi	r25, 0x00	; 0
     ce8:	0f 90       	pop	r0
     cea:	0f 90       	pop	r0
     cec:	df 91       	pop	r29
     cee:	cf 91       	pop	r28
     cf0:	1f 91       	pop	r17
     cf2:	0f 91       	pop	r16
     cf4:	ff 90       	pop	r15
     cf6:	ef 90       	pop	r14
     cf8:	df 90       	pop	r13
     cfa:	cf 90       	pop	r12
     cfc:	bf 90       	pop	r11
     cfe:	af 90       	pop	r10
     d00:	9f 90       	pop	r9
     d02:	8f 90       	pop	r8
     d04:	7f 90       	pop	r7
     d06:	6f 90       	pop	r6
     d08:	08 95       	ret

00000d0a <print_string_ptr>:
     d0a:	af 92       	push	r10
     d0c:	bf 92       	push	r11
     d0e:	cf 92       	push	r12
     d10:	df 92       	push	r13
     d12:	ef 92       	push	r14
     d14:	ff 92       	push	r15
     d16:	0f 93       	push	r16
     d18:	1f 93       	push	r17
     d1a:	cf 93       	push	r28
     d1c:	df 93       	push	r29
     d1e:	61 15       	cp	r22, r1
     d20:	71 05       	cpc	r23, r1
     d22:	09 f4       	brne	.+2      	; 0xd26 <print_string_ptr+0x1c>
     d24:	c6 c0       	rjmp	.+396    	; 0xeb2 <print_string_ptr+0x1a8>
     d26:	ab 01       	movw	r20, r22
     d28:	8c 01       	movw	r16, r24
     d2a:	00 97       	sbiw	r24, 0x00	; 0
     d2c:	49 f5       	brne	.+82     	; 0xd80 <print_string_ptr+0x76>
     d2e:	63 e0       	ldi	r22, 0x03	; 3
     d30:	70 e0       	ldi	r23, 0x00	; 0
     d32:	ca 01       	movw	r24, r20
     d34:	0e 94 ac 04 	call	0x958	; 0x958 <ensure>
     d38:	00 97       	sbiw	r24, 0x00	; 0
     d3a:	09 f4       	brne	.+2      	; 0xd3e <print_string_ptr+0x34>
     d3c:	bd c0       	rjmp	.+378    	; 0xeb8 <print_string_ptr+0x1ae>
     d3e:	22 e2       	ldi	r18, 0x22	; 34
     d40:	32 e2       	ldi	r19, 0x22	; 34
     d42:	fc 01       	movw	r30, r24
     d44:	31 83       	std	Z+1, r19	; 0x01
     d46:	20 83       	st	Z, r18
     d48:	12 82       	std	Z+2, r1	; 0x02
     d4a:	81 e0       	ldi	r24, 0x01	; 1
     d4c:	90 e0       	ldi	r25, 0x00	; 0
     d4e:	b9 c0       	rjmp	.+370    	; 0xec2 <print_string_ptr+0x1b8>
     d50:	9e 30       	cpi	r25, 0x0E	; 14
     d52:	38 f4       	brcc	.+14     	; 0xd62 <print_string_ptr+0x58>
     d54:	9c 30       	cpi	r25, 0x0C	; 12
     d56:	48 f4       	brcc	.+18     	; 0xd6a <print_string_ptr+0x60>
     d58:	28 ef       	ldi	r18, 0xF8	; 248
     d5a:	29 0f       	add	r18, r25
     d5c:	23 30       	cpi	r18, 0x03	; 3
     d5e:	48 f4       	brcc	.+18     	; 0xd72 <print_string_ptr+0x68>
     d60:	04 c0       	rjmp	.+8      	; 0xd6a <print_string_ptr+0x60>
     d62:	92 32       	cpi	r25, 0x22	; 34
     d64:	11 f0       	breq	.+4      	; 0xd6a <print_string_ptr+0x60>
     d66:	9c 35       	cpi	r25, 0x5C	; 92
     d68:	21 f4       	brne	.+8      	; 0xd72 <print_string_ptr+0x68>
     d6a:	8f ef       	ldi	r24, 0xFF	; 255
     d6c:	e8 1a       	sub	r14, r24
     d6e:	f8 0a       	sbc	r15, r24
     d70:	05 c0       	rjmp	.+10     	; 0xd7c <print_string_ptr+0x72>
     d72:	90 32       	cpi	r25, 0x20	; 32
     d74:	18 f4       	brcc	.+6      	; 0xd7c <print_string_ptr+0x72>
     d76:	85 e0       	ldi	r24, 0x05	; 5
     d78:	e8 0e       	add	r14, r24
     d7a:	f1 1c       	adc	r15, r1
     d7c:	31 96       	adiw	r30, 0x01	; 1
     d7e:	03 c0       	rjmp	.+6      	; 0xd86 <print_string_ptr+0x7c>
     d80:	fc 01       	movw	r30, r24
     d82:	e1 2c       	mov	r14, r1
     d84:	f1 2c       	mov	r15, r1
     d86:	90 81       	ld	r25, Z
     d88:	91 11       	cpse	r25, r1
     d8a:	e2 cf       	rjmp	.-60     	; 0xd50 <print_string_ptr+0x46>
     d8c:	e0 1b       	sub	r30, r16
     d8e:	f1 0b       	sbc	r31, r17
     d90:	57 01       	movw	r10, r14
     d92:	ae 0e       	add	r10, r30
     d94:	bf 1e       	adc	r11, r31
     d96:	b5 01       	movw	r22, r10
     d98:	6d 5f       	subi	r22, 0xFD	; 253
     d9a:	7f 4f       	sbci	r23, 0xFF	; 255
     d9c:	ca 01       	movw	r24, r20
     d9e:	0e 94 ac 04 	call	0x958	; 0x958 <ensure>
     da2:	6c 01       	movw	r12, r24
     da4:	00 97       	sbiw	r24, 0x00	; 0
     da6:	09 f4       	brne	.+2      	; 0xdaa <print_string_ptr+0xa0>
     da8:	8a c0       	rjmp	.+276    	; 0xebe <print_string_ptr+0x1b4>
     daa:	ef 28       	or	r14, r15
     dac:	a9 f4       	brne	.+42     	; 0xdd8 <print_string_ptr+0xce>
     dae:	c2 e2       	ldi	r28, 0x22	; 34
     db0:	fc 01       	movw	r30, r24
     db2:	c1 93       	st	Z+, r28
     db4:	cf 01       	movw	r24, r30
     db6:	a5 01       	movw	r20, r10
     db8:	b8 01       	movw	r22, r16
     dba:	0e 94 c6 18 	call	0x318c	; 0x318c <memcpy>
     dbe:	f5 01       	movw	r30, r10
     dc0:	31 96       	adiw	r30, 0x01	; 1
     dc2:	ec 0d       	add	r30, r12
     dc4:	fd 1d       	adc	r31, r13
     dc6:	c0 83       	st	Z, r28
     dc8:	e5 01       	movw	r28, r10
     dca:	22 96       	adiw	r28, 0x02	; 2
     dcc:	cc 0d       	add	r28, r12
     dce:	dd 1d       	adc	r29, r13
     dd0:	18 82       	st	Y, r1
     dd2:	81 e0       	ldi	r24, 0x01	; 1
     dd4:	90 e0       	ldi	r25, 0x00	; 0
     dd6:	75 c0       	rjmp	.+234    	; 0xec2 <print_string_ptr+0x1b8>
     dd8:	82 e2       	ldi	r24, 0x22	; 34
     dda:	f6 01       	movw	r30, r12
     ddc:	81 93       	st	Z+, r24
     dde:	7f 01       	movw	r14, r30
     de0:	e8 01       	movw	r28, r16
     de2:	56 c0       	rjmp	.+172    	; 0xe90 <print_string_ptr+0x186>
     de4:	80 32       	cpi	r24, 0x20	; 32
     de6:	40 f0       	brcs	.+16     	; 0xdf8 <print_string_ptr+0xee>
     de8:	82 32       	cpi	r24, 0x22	; 34
     dea:	31 f0       	breq	.+12     	; 0xdf8 <print_string_ptr+0xee>
     dec:	8c 35       	cpi	r24, 0x5C	; 92
     dee:	21 f0       	breq	.+8      	; 0xdf8 <print_string_ptr+0xee>
     df0:	f7 01       	movw	r30, r14
     df2:	80 83       	st	Z, r24
     df4:	97 01       	movw	r18, r14
     df6:	47 c0       	rjmp	.+142    	; 0xe86 <print_string_ptr+0x17c>
     df8:	97 01       	movw	r18, r14
     dfa:	2f 5f       	subi	r18, 0xFF	; 255
     dfc:	3f 4f       	sbci	r19, 0xFF	; 255
     dfe:	8c e5       	ldi	r24, 0x5C	; 92
     e00:	f7 01       	movw	r30, r14
     e02:	80 83       	st	Z, r24
     e04:	88 81       	ld	r24, Y
     e06:	8c 30       	cpi	r24, 0x0C	; 12
     e08:	d9 f0       	breq	.+54     	; 0xe40 <print_string_ptr+0x136>
     e0a:	38 f4       	brcc	.+14     	; 0xe1a <print_string_ptr+0x110>
     e0c:	89 30       	cpi	r24, 0x09	; 9
     e0e:	21 f1       	breq	.+72     	; 0xe58 <print_string_ptr+0x14e>
     e10:	8a 30       	cpi	r24, 0x0A	; 10
     e12:	d1 f0       	breq	.+52     	; 0xe48 <print_string_ptr+0x13e>
     e14:	88 30       	cpi	r24, 0x08	; 8
     e16:	21 f5       	brne	.+72     	; 0xe60 <print_string_ptr+0x156>
     e18:	0f c0       	rjmp	.+30     	; 0xe38 <print_string_ptr+0x12e>
     e1a:	82 32       	cpi	r24, 0x22	; 34
     e1c:	49 f0       	breq	.+18     	; 0xe30 <print_string_ptr+0x126>
     e1e:	8c 35       	cpi	r24, 0x5C	; 92
     e20:	19 f0       	breq	.+6      	; 0xe28 <print_string_ptr+0x11e>
     e22:	8d 30       	cpi	r24, 0x0D	; 13
     e24:	e9 f4       	brne	.+58     	; 0xe60 <print_string_ptr+0x156>
     e26:	14 c0       	rjmp	.+40     	; 0xe50 <print_string_ptr+0x146>
     e28:	8c e5       	ldi	r24, 0x5C	; 92
     e2a:	f7 01       	movw	r30, r14
     e2c:	81 83       	std	Z+1, r24	; 0x01
     e2e:	2b c0       	rjmp	.+86     	; 0xe86 <print_string_ptr+0x17c>
     e30:	82 e2       	ldi	r24, 0x22	; 34
     e32:	f7 01       	movw	r30, r14
     e34:	81 83       	std	Z+1, r24	; 0x01
     e36:	27 c0       	rjmp	.+78     	; 0xe86 <print_string_ptr+0x17c>
     e38:	82 e6       	ldi	r24, 0x62	; 98
     e3a:	f7 01       	movw	r30, r14
     e3c:	81 83       	std	Z+1, r24	; 0x01
     e3e:	23 c0       	rjmp	.+70     	; 0xe86 <print_string_ptr+0x17c>
     e40:	86 e6       	ldi	r24, 0x66	; 102
     e42:	f7 01       	movw	r30, r14
     e44:	81 83       	std	Z+1, r24	; 0x01
     e46:	1f c0       	rjmp	.+62     	; 0xe86 <print_string_ptr+0x17c>
     e48:	8e e6       	ldi	r24, 0x6E	; 110
     e4a:	f7 01       	movw	r30, r14
     e4c:	81 83       	std	Z+1, r24	; 0x01
     e4e:	1b c0       	rjmp	.+54     	; 0xe86 <print_string_ptr+0x17c>
     e50:	82 e7       	ldi	r24, 0x72	; 114
     e52:	f7 01       	movw	r30, r14
     e54:	81 83       	std	Z+1, r24	; 0x01
     e56:	17 c0       	rjmp	.+46     	; 0xe86 <print_string_ptr+0x17c>
     e58:	84 e7       	ldi	r24, 0x74	; 116
     e5a:	f7 01       	movw	r30, r14
     e5c:	81 83       	std	Z+1, r24	; 0x01
     e5e:	13 c0       	rjmp	.+38     	; 0xe86 <print_string_ptr+0x17c>
     e60:	1f 92       	push	r1
     e62:	8f 93       	push	r24
     e64:	80 e1       	ldi	r24, 0x10	; 16
     e66:	91 e0       	ldi	r25, 0x01	; 1
     e68:	9f 93       	push	r25
     e6a:	8f 93       	push	r24
     e6c:	3f 93       	push	r19
     e6e:	2f 93       	push	r18
     e70:	0e 94 f5 18 	call	0x31ea	; 0x31ea <sprintf>
     e74:	97 01       	movw	r18, r14
     e76:	2b 5f       	subi	r18, 0xFB	; 251
     e78:	3f 4f       	sbci	r19, 0xFF	; 255
     e7a:	0f 90       	pop	r0
     e7c:	0f 90       	pop	r0
     e7e:	0f 90       	pop	r0
     e80:	0f 90       	pop	r0
     e82:	0f 90       	pop	r0
     e84:	0f 90       	pop	r0
     e86:	21 96       	adiw	r28, 0x01	; 1
     e88:	79 01       	movw	r14, r18
     e8a:	ff ef       	ldi	r31, 0xFF	; 255
     e8c:	ef 1a       	sub	r14, r31
     e8e:	ff 0a       	sbc	r15, r31
     e90:	88 81       	ld	r24, Y
     e92:	81 11       	cpse	r24, r1
     e94:	a7 cf       	rjmp	.-178    	; 0xde4 <print_string_ptr+0xda>
     e96:	f5 01       	movw	r30, r10
     e98:	31 96       	adiw	r30, 0x01	; 1
     e9a:	ec 0d       	add	r30, r12
     e9c:	fd 1d       	adc	r31, r13
     e9e:	82 e2       	ldi	r24, 0x22	; 34
     ea0:	80 83       	st	Z, r24
     ea2:	e5 01       	movw	r28, r10
     ea4:	22 96       	adiw	r28, 0x02	; 2
     ea6:	cc 0d       	add	r28, r12
     ea8:	dd 1d       	adc	r29, r13
     eaa:	18 82       	st	Y, r1
     eac:	81 e0       	ldi	r24, 0x01	; 1
     eae:	90 e0       	ldi	r25, 0x00	; 0
     eb0:	08 c0       	rjmp	.+16     	; 0xec2 <print_string_ptr+0x1b8>
     eb2:	80 e0       	ldi	r24, 0x00	; 0
     eb4:	90 e0       	ldi	r25, 0x00	; 0
     eb6:	05 c0       	rjmp	.+10     	; 0xec2 <print_string_ptr+0x1b8>
     eb8:	80 e0       	ldi	r24, 0x00	; 0
     eba:	90 e0       	ldi	r25, 0x00	; 0
     ebc:	02 c0       	rjmp	.+4      	; 0xec2 <print_string_ptr+0x1b8>
     ebe:	80 e0       	ldi	r24, 0x00	; 0
     ec0:	90 e0       	ldi	r25, 0x00	; 0
     ec2:	df 91       	pop	r29
     ec4:	cf 91       	pop	r28
     ec6:	1f 91       	pop	r17
     ec8:	0f 91       	pop	r16
     eca:	ff 90       	pop	r15
     ecc:	ef 90       	pop	r14
     ece:	df 90       	pop	r13
     ed0:	cf 90       	pop	r12
     ed2:	bf 90       	pop	r11
     ed4:	af 90       	pop	r10
     ed6:	08 95       	ret

00000ed8 <print_string>:
     ed8:	fc 01       	movw	r30, r24
     eda:	80 85       	ldd	r24, Z+8	; 0x08
     edc:	91 85       	ldd	r25, Z+9	; 0x09
     ede:	0e 94 85 06 	call	0xd0a	; 0xd0a <print_string_ptr>
     ee2:	08 95       	ret

00000ee4 <print_number>:
     ee4:	6f 92       	push	r6
     ee6:	7f 92       	push	r7
     ee8:	9f 92       	push	r9
     eea:	af 92       	push	r10
     eec:	bf 92       	push	r11
     eee:	cf 92       	push	r12
     ef0:	df 92       	push	r13
     ef2:	ef 92       	push	r14
     ef4:	ff 92       	push	r15
     ef6:	0f 93       	push	r16
     ef8:	1f 93       	push	r17
     efa:	cf 93       	push	r28
     efc:	df 93       	push	r29
     efe:	cd b7       	in	r28, 0x3d	; 61
     f00:	de b7       	in	r29, 0x3e	; 62
     f02:	6e 97       	sbiw	r28, 0x1e	; 30
     f04:	0f b6       	in	r0, 0x3f	; 63
     f06:	f8 94       	cli
     f08:	de bf       	out	0x3e, r29	; 62
     f0a:	0f be       	out	0x3f, r0	; 63
     f0c:	cd bf       	out	0x3d, r28	; 61
     f0e:	8c 01       	movw	r16, r24
     f10:	6b 01       	movw	r12, r22
     f12:	dc 01       	movw	r26, r24
     f14:	1c 96       	adiw	r26, 0x0c	; 12
     f16:	9c 90       	ld	r9, X
     f18:	1c 97       	sbiw	r26, 0x0c	; 12
     f1a:	1d 96       	adiw	r26, 0x0d	; 13
     f1c:	ac 90       	ld	r10, X
     f1e:	1d 97       	sbiw	r26, 0x0d	; 13
     f20:	1e 96       	adiw	r26, 0x0e	; 14
     f22:	bc 90       	ld	r11, X
     f24:	1e 97       	sbiw	r26, 0x0e	; 14
     f26:	1f 96       	adiw	r26, 0x0f	; 15
     f28:	ec 90       	ld	r14, X
     f2a:	fe 01       	movw	r30, r28
     f2c:	31 96       	adiw	r30, 0x01	; 1
     f2e:	8a e1       	ldi	r24, 0x1A	; 26
     f30:	df 01       	movw	r26, r30
     f32:	1d 92       	st	X+, r1
     f34:	8a 95       	dec	r24
     f36:	e9 f7       	brne	.-6      	; 0xf32 <print_number+0x4e>
     f38:	0e 94 06 01 	call	0x20c	; 0x20c <get_decimal_point>
     f3c:	f8 2e       	mov	r15, r24
     f3e:	1b 8e       	std	Y+27, r1	; 0x1b
     f40:	1c 8e       	std	Y+28, r1	; 0x1c
     f42:	1d 8e       	std	Y+29, r1	; 0x1d
     f44:	1e 8e       	std	Y+30, r1	; 0x1e
     f46:	c1 14       	cp	r12, r1
     f48:	d1 04       	cpc	r13, r1
     f4a:	09 f4       	brne	.+2      	; 0xf4e <print_number+0x6a>
     f4c:	ce c0       	rjmp	.+412    	; 0x10ea <print_number+0x206>
     f4e:	29 2d       	mov	r18, r9
     f50:	3a 2d       	mov	r19, r10
     f52:	4b 2d       	mov	r20, r11
     f54:	5e 2d       	mov	r21, r14
     f56:	69 2d       	mov	r22, r9
     f58:	7a 2d       	mov	r23, r10
     f5a:	8b 2d       	mov	r24, r11
     f5c:	9e 2d       	mov	r25, r14
     f5e:	0e 94 e1 13 	call	0x27c2	; 0x27c2 <__cmpsf2>
     f62:	81 11       	cpse	r24, r1
     f64:	10 c0       	rjmp	.+32     	; 0xf86 <print_number+0xa2>
     f66:	29 2d       	mov	r18, r9
     f68:	3a 2d       	mov	r19, r10
     f6a:	4b 2d       	mov	r20, r11
     f6c:	5e 2d       	mov	r21, r14
     f6e:	69 2d       	mov	r22, r9
     f70:	7a 2d       	mov	r23, r10
     f72:	8b 2d       	mov	r24, r11
     f74:	9e 2d       	mov	r25, r14
     f76:	0e 94 74 13 	call	0x26e8	; 0x26e8 <__subsf3>
     f7a:	9b 01       	movw	r18, r22
     f7c:	ac 01       	movw	r20, r24
     f7e:	0e 94 e1 13 	call	0x27c2	; 0x27c2 <__cmpsf2>
     f82:	88 23       	and	r24, r24
     f84:	61 f0       	breq	.+24     	; 0xf9e <print_number+0xba>
     f86:	85 e0       	ldi	r24, 0x05	; 5
     f88:	e6 e1       	ldi	r30, 0x16	; 22
     f8a:	f1 e0       	ldi	r31, 0x01	; 1
     f8c:	de 01       	movw	r26, r28
     f8e:	11 96       	adiw	r26, 0x01	; 1
     f90:	01 90       	ld	r0, Z+
     f92:	0d 92       	st	X+, r0
     f94:	8a 95       	dec	r24
     f96:	e1 f7       	brne	.-8      	; 0xf90 <print_number+0xac>
     f98:	04 e0       	ldi	r16, 0x04	; 4
     f9a:	10 e0       	ldi	r17, 0x00	; 0
     f9c:	6c c0       	rjmp	.+216    	; 0x1076 <print_number+0x192>
     f9e:	f8 01       	movw	r30, r16
     fa0:	02 85       	ldd	r16, Z+10	; 0x0a
     fa2:	13 85       	ldd	r17, Z+11	; 0x0b
     fa4:	b8 01       	movw	r22, r16
     fa6:	01 2e       	mov	r0, r17
     fa8:	00 0c       	add	r0, r0
     faa:	88 0b       	sbc	r24, r24
     fac:	99 0b       	sbc	r25, r25
     fae:	0e 94 1e 14 	call	0x283c	; 0x283c <__floatsisf>
     fb2:	9b 01       	movw	r18, r22
     fb4:	ac 01       	movw	r20, r24
     fb6:	69 2d       	mov	r22, r9
     fb8:	7a 2d       	mov	r23, r10
     fba:	8b 2d       	mov	r24, r11
     fbc:	9e 2d       	mov	r25, r14
     fbe:	0e 94 e1 13 	call	0x27c2	; 0x27c2 <__cmpsf2>
     fc2:	81 11       	cpse	r24, r1
     fc4:	14 c0       	rjmp	.+40     	; 0xfee <print_number+0x10a>
     fc6:	1f 93       	push	r17
     fc8:	0f 93       	push	r16
     fca:	8b e1       	ldi	r24, 0x1B	; 27
     fcc:	91 e0       	ldi	r25, 0x01	; 1
     fce:	9f 93       	push	r25
     fd0:	8f 93       	push	r24
     fd2:	ce 01       	movw	r24, r28
     fd4:	01 96       	adiw	r24, 0x01	; 1
     fd6:	9f 93       	push	r25
     fd8:	8f 93       	push	r24
     fda:	0e 94 f5 18 	call	0x31ea	; 0x31ea <sprintf>
     fde:	8c 01       	movw	r16, r24
     fe0:	0f 90       	pop	r0
     fe2:	0f 90       	pop	r0
     fe4:	0f 90       	pop	r0
     fe6:	0f 90       	pop	r0
     fe8:	0f 90       	pop	r0
     fea:	0f 90       	pop	r0
     fec:	44 c0       	rjmp	.+136    	; 0x1076 <print_number+0x192>
     fee:	ef 92       	push	r14
     ff0:	bf 92       	push	r11
     ff2:	af 92       	push	r10
     ff4:	9f 92       	push	r9
     ff6:	8e e1       	ldi	r24, 0x1E	; 30
     ff8:	91 e0       	ldi	r25, 0x01	; 1
     ffa:	9f 93       	push	r25
     ffc:	8f 93       	push	r24
     ffe:	9e 01       	movw	r18, r28
    1000:	2f 5f       	subi	r18, 0xFF	; 255
    1002:	3f 4f       	sbci	r19, 0xFF	; 255
    1004:	39 01       	movw	r6, r18
    1006:	3f 93       	push	r19
    1008:	2f 93       	push	r18
    100a:	0e 94 f5 18 	call	0x31ea	; 0x31ea <sprintf>
    100e:	8c 01       	movw	r16, r24
    1010:	ce 01       	movw	r24, r28
    1012:	4b 96       	adiw	r24, 0x1b	; 27
    1014:	9f 93       	push	r25
    1016:	8f 93       	push	r24
    1018:	85 e2       	ldi	r24, 0x25	; 37
    101a:	91 e0       	ldi	r25, 0x01	; 1
    101c:	9f 93       	push	r25
    101e:	8f 93       	push	r24
    1020:	7f 92       	push	r7
    1022:	6f 92       	push	r6
    1024:	0e 94 17 19 	call	0x322e	; 0x322e <sscanf>
    1028:	0f b6       	in	r0, 0x3f	; 63
    102a:	f8 94       	cli
    102c:	de bf       	out	0x3e, r29	; 62
    102e:	0f be       	out	0x3f, r0	; 63
    1030:	cd bf       	out	0x3d, r28	; 61
    1032:	01 97       	sbiw	r24, 0x01	; 1
    1034:	61 f4       	brne	.+24     	; 0x104e <print_number+0x16a>
    1036:	6b 8d       	ldd	r22, Y+27	; 0x1b
    1038:	7c 8d       	ldd	r23, Y+28	; 0x1c
    103a:	8d 8d       	ldd	r24, Y+29	; 0x1d
    103c:	9e 8d       	ldd	r25, Y+30	; 0x1e
    103e:	29 2d       	mov	r18, r9
    1040:	3a 2d       	mov	r19, r10
    1042:	4b 2d       	mov	r20, r11
    1044:	5e 2d       	mov	r21, r14
    1046:	0e 94 08 01 	call	0x210	; 0x210 <compare_double>
    104a:	89 2b       	or	r24, r25
    104c:	a1 f4       	brne	.+40     	; 0x1076 <print_number+0x192>
    104e:	ef 92       	push	r14
    1050:	bf 92       	push	r11
    1052:	af 92       	push	r10
    1054:	9f 92       	push	r9
    1056:	89 e2       	ldi	r24, 0x29	; 41
    1058:	91 e0       	ldi	r25, 0x01	; 1
    105a:	9f 93       	push	r25
    105c:	8f 93       	push	r24
    105e:	ce 01       	movw	r24, r28
    1060:	01 96       	adiw	r24, 0x01	; 1
    1062:	9f 93       	push	r25
    1064:	8f 93       	push	r24
    1066:	0e 94 f5 18 	call	0x31ea	; 0x31ea <sprintf>
    106a:	8c 01       	movw	r16, r24
    106c:	0f b6       	in	r0, 0x3f	; 63
    106e:	f8 94       	cli
    1070:	de bf       	out	0x3e, r29	; 62
    1072:	0f be       	out	0x3f, r0	; 63
    1074:	cd bf       	out	0x3d, r28	; 61
    1076:	58 01       	movw	r10, r16
    1078:	0a 31       	cpi	r16, 0x1A	; 26
    107a:	11 05       	cpc	r17, r1
    107c:	c8 f5       	brcc	.+114    	; 0x10f0 <print_number+0x20c>
    107e:	b8 01       	movw	r22, r16
    1080:	6f 5f       	subi	r22, 0xFF	; 255
    1082:	7f 4f       	sbci	r23, 0xFF	; 255
    1084:	c6 01       	movw	r24, r12
    1086:	0e 94 ac 04 	call	0x958	; 0x958 <ensure>
    108a:	ac 01       	movw	r20, r24
    108c:	89 2b       	or	r24, r25
    108e:	99 f1       	breq	.+102    	; 0x10f6 <print_number+0x212>
    1090:	20 e0       	ldi	r18, 0x00	; 0
    1092:	30 e0       	ldi	r19, 0x00	; 0
    1094:	15 c0       	rjmp	.+42     	; 0x10c0 <print_number+0x1dc>
    1096:	e1 e0       	ldi	r30, 0x01	; 1
    1098:	f0 e0       	ldi	r31, 0x00	; 0
    109a:	ec 0f       	add	r30, r28
    109c:	fd 1f       	adc	r31, r29
    109e:	e2 0f       	add	r30, r18
    10a0:	f3 1f       	adc	r31, r19
    10a2:	90 81       	ld	r25, Z
    10a4:	f9 12       	cpse	r15, r25
    10a6:	06 c0       	rjmp	.+12     	; 0x10b4 <print_number+0x1d0>
    10a8:	8e e2       	ldi	r24, 0x2E	; 46
    10aa:	fa 01       	movw	r30, r20
    10ac:	e2 0f       	add	r30, r18
    10ae:	f3 1f       	adc	r31, r19
    10b0:	80 83       	st	Z, r24
    10b2:	04 c0       	rjmp	.+8      	; 0x10bc <print_number+0x1d8>
    10b4:	fa 01       	movw	r30, r20
    10b6:	e2 0f       	add	r30, r18
    10b8:	f3 1f       	adc	r31, r19
    10ba:	90 83       	st	Z, r25
    10bc:	2f 5f       	subi	r18, 0xFF	; 255
    10be:	3f 4f       	sbci	r19, 0xFF	; 255
    10c0:	2a 15       	cp	r18, r10
    10c2:	3b 05       	cpc	r19, r11
    10c4:	40 f3       	brcs	.-48     	; 0x1096 <print_number+0x1b2>
    10c6:	fa 01       	movw	r30, r20
    10c8:	e2 0f       	add	r30, r18
    10ca:	f3 1f       	adc	r31, r19
    10cc:	10 82       	st	Z, r1
    10ce:	d6 01       	movw	r26, r12
    10d0:	14 96       	adiw	r26, 0x04	; 4
    10d2:	8d 91       	ld	r24, X+
    10d4:	9c 91       	ld	r25, X
    10d6:	15 97       	sbiw	r26, 0x05	; 5
    10d8:	a8 0e       	add	r10, r24
    10da:	b9 1e       	adc	r11, r25
    10dc:	15 96       	adiw	r26, 0x05	; 5
    10de:	bc 92       	st	X, r11
    10e0:	ae 92       	st	-X, r10
    10e2:	14 97       	sbiw	r26, 0x04	; 4
    10e4:	81 e0       	ldi	r24, 0x01	; 1
    10e6:	90 e0       	ldi	r25, 0x00	; 0
    10e8:	08 c0       	rjmp	.+16     	; 0x10fa <print_number+0x216>
    10ea:	80 e0       	ldi	r24, 0x00	; 0
    10ec:	90 e0       	ldi	r25, 0x00	; 0
    10ee:	05 c0       	rjmp	.+10     	; 0x10fa <print_number+0x216>
    10f0:	80 e0       	ldi	r24, 0x00	; 0
    10f2:	90 e0       	ldi	r25, 0x00	; 0
    10f4:	02 c0       	rjmp	.+4      	; 0x10fa <print_number+0x216>
    10f6:	80 e0       	ldi	r24, 0x00	; 0
    10f8:	90 e0       	ldi	r25, 0x00	; 0
    10fa:	6e 96       	adiw	r28, 0x1e	; 30
    10fc:	0f b6       	in	r0, 0x3f	; 63
    10fe:	f8 94       	cli
    1100:	de bf       	out	0x3e, r29	; 62
    1102:	0f be       	out	0x3f, r0	; 63
    1104:	cd bf       	out	0x3d, r28	; 61
    1106:	df 91       	pop	r29
    1108:	cf 91       	pop	r28
    110a:	1f 91       	pop	r17
    110c:	0f 91       	pop	r16
    110e:	ff 90       	pop	r15
    1110:	ef 90       	pop	r14
    1112:	df 90       	pop	r13
    1114:	cf 90       	pop	r12
    1116:	bf 90       	pop	r11
    1118:	af 90       	pop	r10
    111a:	9f 90       	pop	r9
    111c:	7f 90       	pop	r7
    111e:	6f 90       	pop	r6
    1120:	08 95       	ret

00001122 <print_value>:
    1122:	0f 93       	push	r16
    1124:	1f 93       	push	r17
    1126:	cf 93       	push	r28
    1128:	df 93       	push	r29
    112a:	00 97       	sbiw	r24, 0x00	; 0
    112c:	09 f4       	brne	.+2      	; 0x1130 <print_value+0xe>
    112e:	8f c0       	rjmp	.+286    	; 0x124e <print_value+0x12c>
    1130:	61 15       	cp	r22, r1
    1132:	71 05       	cpc	r23, r1
    1134:	09 f4       	brne	.+2      	; 0x1138 <print_value+0x16>
    1136:	8e c0       	rjmp	.+284    	; 0x1254 <print_value+0x132>
    1138:	9b 01       	movw	r18, r22
    113a:	8c 01       	movw	r16, r24
    113c:	fc 01       	movw	r30, r24
    113e:	c6 81       	ldd	r28, Z+6	; 0x06
    1140:	d7 81       	ldd	r29, Z+7	; 0x07
    1142:	dd 27       	eor	r29, r29
    1144:	c8 30       	cpi	r28, 0x08	; 8
    1146:	d1 05       	cpc	r29, r1
    1148:	09 f4       	brne	.+2      	; 0x114c <print_value+0x2a>
    114a:	54 c0       	rjmp	.+168    	; 0x11f4 <print_value+0xd2>
    114c:	5c f4       	brge	.+22     	; 0x1164 <print_value+0x42>
    114e:	c2 30       	cpi	r28, 0x02	; 2
    1150:	d1 05       	cpc	r29, r1
    1152:	e9 f1       	breq	.+122    	; 0x11ce <print_value+0xac>
    1154:	c4 30       	cpi	r28, 0x04	; 4
    1156:	d1 05       	cpc	r29, r1
    1158:	b1 f0       	breq	.+44     	; 0x1186 <print_value+0x64>
    115a:	c1 30       	cpi	r28, 0x01	; 1
    115c:	d1 05       	cpc	r29, r1
    115e:	09 f0       	breq	.+2      	; 0x1162 <print_value+0x40>
    1160:	7c c0       	rjmp	.+248    	; 0x125a <print_value+0x138>
    1162:	24 c0       	rjmp	.+72     	; 0x11ac <print_value+0x8a>
    1164:	c0 32       	cpi	r28, 0x20	; 32
    1166:	d1 05       	cpc	r29, r1
    1168:	09 f4       	brne	.+2      	; 0x116c <print_value+0x4a>
    116a:	69 c0       	rjmp	.+210    	; 0x123e <print_value+0x11c>
    116c:	24 f4       	brge	.+8      	; 0x1176 <print_value+0x54>
    116e:	60 97       	sbiw	r28, 0x10	; 16
    1170:	09 f4       	brne	.+2      	; 0x1174 <print_value+0x52>
    1172:	61 c0       	rjmp	.+194    	; 0x1236 <print_value+0x114>
    1174:	72 c0       	rjmp	.+228    	; 0x125a <print_value+0x138>
    1176:	c0 34       	cpi	r28, 0x40	; 64
    1178:	d1 05       	cpc	r29, r1
    117a:	09 f4       	brne	.+2      	; 0x117e <print_value+0x5c>
    117c:	64 c0       	rjmp	.+200    	; 0x1246 <print_value+0x124>
    117e:	c0 38       	cpi	r28, 0x80	; 128
    1180:	d1 05       	cpc	r29, r1
    1182:	e1 f1       	breq	.+120    	; 0x11fc <print_value+0xda>
    1184:	6a c0       	rjmp	.+212    	; 0x125a <print_value+0x138>
    1186:	65 e0       	ldi	r22, 0x05	; 5
    1188:	70 e0       	ldi	r23, 0x00	; 0
    118a:	c9 01       	movw	r24, r18
    118c:	0e 94 ac 04 	call	0x958	; 0x958 <ensure>
    1190:	00 97       	sbiw	r24, 0x00	; 0
    1192:	09 f4       	brne	.+2      	; 0x1196 <print_value+0x74>
    1194:	65 c0       	rjmp	.+202    	; 0x1260 <print_value+0x13e>
    1196:	25 e0       	ldi	r18, 0x05	; 5
    1198:	e6 e1       	ldi	r30, 0x16	; 22
    119a:	f1 e0       	ldi	r31, 0x01	; 1
    119c:	dc 01       	movw	r26, r24
    119e:	01 90       	ld	r0, Z+
    11a0:	0d 92       	st	X+, r0
    11a2:	2a 95       	dec	r18
    11a4:	e1 f7       	brne	.-8      	; 0x119e <print_value+0x7c>
    11a6:	c1 e0       	ldi	r28, 0x01	; 1
    11a8:	d0 e0       	ldi	r29, 0x00	; 0
    11aa:	68 c0       	rjmp	.+208    	; 0x127c <print_value+0x15a>
    11ac:	66 e0       	ldi	r22, 0x06	; 6
    11ae:	70 e0       	ldi	r23, 0x00	; 0
    11b0:	c9 01       	movw	r24, r18
    11b2:	0e 94 ac 04 	call	0x958	; 0x958 <ensure>
    11b6:	00 97       	sbiw	r24, 0x00	; 0
    11b8:	09 f4       	brne	.+2      	; 0x11bc <print_value+0x9a>
    11ba:	55 c0       	rjmp	.+170    	; 0x1266 <print_value+0x144>
    11bc:	26 e0       	ldi	r18, 0x06	; 6
    11be:	e0 e3       	ldi	r30, 0x30	; 48
    11c0:	f1 e0       	ldi	r31, 0x01	; 1
    11c2:	dc 01       	movw	r26, r24
    11c4:	01 90       	ld	r0, Z+
    11c6:	0d 92       	st	X+, r0
    11c8:	2a 95       	dec	r18
    11ca:	e1 f7       	brne	.-8      	; 0x11c4 <print_value+0xa2>
    11cc:	57 c0       	rjmp	.+174    	; 0x127c <print_value+0x15a>
    11ce:	65 e0       	ldi	r22, 0x05	; 5
    11d0:	70 e0       	ldi	r23, 0x00	; 0
    11d2:	c9 01       	movw	r24, r18
    11d4:	0e 94 ac 04 	call	0x958	; 0x958 <ensure>
    11d8:	00 97       	sbiw	r24, 0x00	; 0
    11da:	09 f4       	brne	.+2      	; 0x11de <print_value+0xbc>
    11dc:	47 c0       	rjmp	.+142    	; 0x126c <print_value+0x14a>
    11de:	25 e0       	ldi	r18, 0x05	; 5
    11e0:	e6 e3       	ldi	r30, 0x36	; 54
    11e2:	f1 e0       	ldi	r31, 0x01	; 1
    11e4:	dc 01       	movw	r26, r24
    11e6:	01 90       	ld	r0, Z+
    11e8:	0d 92       	st	X+, r0
    11ea:	2a 95       	dec	r18
    11ec:	e1 f7       	brne	.-8      	; 0x11e6 <print_value+0xc4>
    11ee:	c1 e0       	ldi	r28, 0x01	; 1
    11f0:	d0 e0       	ldi	r29, 0x00	; 0
    11f2:	44 c0       	rjmp	.+136    	; 0x127c <print_value+0x15a>
    11f4:	0e 94 72 07 	call	0xee4	; 0xee4 <print_number>
    11f8:	ec 01       	movw	r28, r24
    11fa:	40 c0       	rjmp	.+128    	; 0x127c <print_value+0x15a>
    11fc:	fc 01       	movw	r30, r24
    11fe:	a0 85       	ldd	r26, Z+8	; 0x08
    1200:	b1 85       	ldd	r27, Z+9	; 0x09
    1202:	10 97       	sbiw	r26, 0x00	; 0
    1204:	b1 f1       	breq	.+108    	; 0x1272 <print_value+0x150>
    1206:	fd 01       	movw	r30, r26
    1208:	01 90       	ld	r0, Z+
    120a:	00 20       	and	r0, r0
    120c:	e9 f7       	brne	.-6      	; 0x1208 <print_value+0xe6>
    120e:	31 97       	sbiw	r30, 0x01	; 1
    1210:	ea 1b       	sub	r30, r26
    1212:	fb 0b       	sbc	r31, r27
    1214:	ef 01       	movw	r28, r30
    1216:	21 96       	adiw	r28, 0x01	; 1
    1218:	be 01       	movw	r22, r28
    121a:	c9 01       	movw	r24, r18
    121c:	0e 94 ac 04 	call	0x958	; 0x958 <ensure>
    1220:	00 97       	sbiw	r24, 0x00	; 0
    1222:	51 f1       	breq	.+84     	; 0x1278 <print_value+0x156>
    1224:	f8 01       	movw	r30, r16
    1226:	60 85       	ldd	r22, Z+8	; 0x08
    1228:	71 85       	ldd	r23, Z+9	; 0x09
    122a:	ae 01       	movw	r20, r28
    122c:	0e 94 c6 18 	call	0x318c	; 0x318c <memcpy>
    1230:	c1 e0       	ldi	r28, 0x01	; 1
    1232:	d0 e0       	ldi	r29, 0x00	; 0
    1234:	23 c0       	rjmp	.+70     	; 0x127c <print_value+0x15a>
    1236:	0e 94 6c 07 	call	0xed8	; 0xed8 <print_string>
    123a:	ec 01       	movw	r28, r24
    123c:	1f c0       	rjmp	.+62     	; 0x127c <print_value+0x15a>
    123e:	0e 94 ef 09 	call	0x13de	; 0x13de <print_array>
    1242:	ec 01       	movw	r28, r24
    1244:	1b c0       	rjmp	.+54     	; 0x127c <print_value+0x15a>
    1246:	0e 94 78 0a 	call	0x14f0	; 0x14f0 <print_object>
    124a:	ec 01       	movw	r28, r24
    124c:	17 c0       	rjmp	.+46     	; 0x127c <print_value+0x15a>
    124e:	c0 e0       	ldi	r28, 0x00	; 0
    1250:	d0 e0       	ldi	r29, 0x00	; 0
    1252:	14 c0       	rjmp	.+40     	; 0x127c <print_value+0x15a>
    1254:	c0 e0       	ldi	r28, 0x00	; 0
    1256:	d0 e0       	ldi	r29, 0x00	; 0
    1258:	11 c0       	rjmp	.+34     	; 0x127c <print_value+0x15a>
    125a:	c0 e0       	ldi	r28, 0x00	; 0
    125c:	d0 e0       	ldi	r29, 0x00	; 0
    125e:	0e c0       	rjmp	.+28     	; 0x127c <print_value+0x15a>
    1260:	c0 e0       	ldi	r28, 0x00	; 0
    1262:	d0 e0       	ldi	r29, 0x00	; 0
    1264:	0b c0       	rjmp	.+22     	; 0x127c <print_value+0x15a>
    1266:	c0 e0       	ldi	r28, 0x00	; 0
    1268:	d0 e0       	ldi	r29, 0x00	; 0
    126a:	08 c0       	rjmp	.+16     	; 0x127c <print_value+0x15a>
    126c:	c0 e0       	ldi	r28, 0x00	; 0
    126e:	d0 e0       	ldi	r29, 0x00	; 0
    1270:	05 c0       	rjmp	.+10     	; 0x127c <print_value+0x15a>
    1272:	c0 e0       	ldi	r28, 0x00	; 0
    1274:	d0 e0       	ldi	r29, 0x00	; 0
    1276:	02 c0       	rjmp	.+4      	; 0x127c <print_value+0x15a>
    1278:	c0 e0       	ldi	r28, 0x00	; 0
    127a:	d0 e0       	ldi	r29, 0x00	; 0
    127c:	ce 01       	movw	r24, r28
    127e:	df 91       	pop	r29
    1280:	cf 91       	pop	r28
    1282:	1f 91       	pop	r17
    1284:	0f 91       	pop	r16
    1286:	08 95       	ret

00001288 <print>:
    1288:	cf 92       	push	r12
    128a:	df 92       	push	r13
    128c:	ef 92       	push	r14
    128e:	ff 92       	push	r15
    1290:	0f 93       	push	r16
    1292:	1f 93       	push	r17
    1294:	cf 93       	push	r28
    1296:	df 93       	push	r29
    1298:	cd b7       	in	r28, 0x3d	; 61
    129a:	de b7       	in	r29, 0x3e	; 62
    129c:	62 97       	sbiw	r28, 0x12	; 18
    129e:	0f b6       	in	r0, 0x3f	; 63
    12a0:	f8 94       	cli
    12a2:	de bf       	out	0x3e, r29	; 62
    12a4:	0f be       	out	0x3f, r0	; 63
    12a6:	cd bf       	out	0x3d, r28	; 61
    12a8:	6c 01       	movw	r12, r24
    12aa:	7b 01       	movw	r14, r22
    12ac:	8a 01       	movw	r16, r20
    12ae:	fe 01       	movw	r30, r28
    12b0:	31 96       	adiw	r30, 0x01	; 1
    12b2:	82 e1       	ldi	r24, 0x12	; 18
    12b4:	df 01       	movw	r26, r30
    12b6:	1d 92       	st	X+, r1
    12b8:	8a 95       	dec	r24
    12ba:	e9 f7       	brne	.-6      	; 0x12b6 <print+0x2e>
    12bc:	da 01       	movw	r26, r20
    12be:	ed 91       	ld	r30, X+
    12c0:	fc 91       	ld	r31, X
    12c2:	80 e0       	ldi	r24, 0x00	; 0
    12c4:	91 e0       	ldi	r25, 0x01	; 1
    12c6:	09 95       	icall
    12c8:	9a 83       	std	Y+2, r25	; 0x02
    12ca:	89 83       	std	Y+1, r24	; 0x01
    12cc:	20 e0       	ldi	r18, 0x00	; 0
    12ce:	31 e0       	ldi	r19, 0x01	; 1
    12d0:	3c 83       	std	Y+4, r19	; 0x04
    12d2:	2b 83       	std	Y+3, r18	; 0x03
    12d4:	fc 86       	std	Y+12, r15	; 0x0c
    12d6:	eb 86       	std	Y+11, r14	; 0x0b
    12d8:	26 e0       	ldi	r18, 0x06	; 6
    12da:	f8 01       	movw	r30, r16
    12dc:	de 01       	movw	r26, r28
    12de:	1d 96       	adiw	r26, 0x0d	; 13
    12e0:	01 90       	ld	r0, Z+
    12e2:	0d 92       	st	X+, r0
    12e4:	2a 95       	dec	r18
    12e6:	e1 f7       	brne	.-8      	; 0x12e0 <print+0x58>
    12e8:	89 2b       	or	r24, r25
    12ea:	09 f4       	brne	.+2      	; 0x12ee <print+0x66>
    12ec:	49 c0       	rjmp	.+146    	; 0x1380 <print+0xf8>
    12ee:	be 01       	movw	r22, r28
    12f0:	6f 5f       	subi	r22, 0xFF	; 255
    12f2:	7f 4f       	sbci	r23, 0xFF	; 255
    12f4:	c6 01       	movw	r24, r12
    12f6:	0e 94 91 08 	call	0x1122	; 0x1122 <print_value>
    12fa:	89 2b       	or	r24, r25
    12fc:	09 f4       	brne	.+2      	; 0x1300 <print+0x78>
    12fe:	43 c0       	rjmp	.+134    	; 0x1386 <print+0xfe>
    1300:	ce 01       	movw	r24, r28
    1302:	01 96       	adiw	r24, 0x01	; 1
    1304:	0e 94 00 04 	call	0x800	; 0x800 <update_offset>
    1308:	d8 01       	movw	r26, r16
    130a:	14 96       	adiw	r26, 0x04	; 4
    130c:	ed 91       	ld	r30, X+
    130e:	fc 91       	ld	r31, X
    1310:	15 97       	sbiw	r26, 0x05	; 5
    1312:	30 97       	sbiw	r30, 0x00	; 0
    1314:	61 f0       	breq	.+24     	; 0x132e <print+0xa6>
    1316:	6d 81       	ldd	r22, Y+5	; 0x05
    1318:	7e 81       	ldd	r23, Y+6	; 0x06
    131a:	6f 5f       	subi	r22, 0xFF	; 255
    131c:	7f 4f       	sbci	r23, 0xFF	; 255
    131e:	89 81       	ldd	r24, Y+1	; 0x01
    1320:	9a 81       	ldd	r25, Y+2	; 0x02
    1322:	09 95       	icall
    1324:	7c 01       	movw	r14, r24
    1326:	00 97       	sbiw	r24, 0x00	; 0
    1328:	81 f1       	breq	.+96     	; 0x138a <print+0x102>
    132a:	9f 2d       	mov	r25, r15
    132c:	49 c0       	rjmp	.+146    	; 0x13c0 <print+0x138>
    132e:	d8 01       	movw	r26, r16
    1330:	ed 91       	ld	r30, X+
    1332:	fc 91       	ld	r31, X
    1334:	8d 81       	ldd	r24, Y+5	; 0x05
    1336:	9e 81       	ldd	r25, Y+6	; 0x06
    1338:	01 96       	adiw	r24, 0x01	; 1
    133a:	09 95       	icall
    133c:	7c 01       	movw	r14, r24
    133e:	89 2b       	or	r24, r25
    1340:	21 f1       	breq	.+72     	; 0x138a <print+0x102>
    1342:	4d 81       	ldd	r20, Y+5	; 0x05
    1344:	5e 81       	ldd	r21, Y+6	; 0x06
    1346:	8b 81       	ldd	r24, Y+3	; 0x03
    1348:	9c 81       	ldd	r25, Y+4	; 0x04
    134a:	69 81       	ldd	r22, Y+1	; 0x01
    134c:	7a 81       	ldd	r23, Y+2	; 0x02
    134e:	4f 5f       	subi	r20, 0xFF	; 255
    1350:	5f 4f       	sbci	r21, 0xFF	; 255
    1352:	84 17       	cp	r24, r20
    1354:	95 07       	cpc	r25, r21
    1356:	08 f4       	brcc	.+2      	; 0x135a <print+0xd2>
    1358:	ac 01       	movw	r20, r24
    135a:	c7 01       	movw	r24, r14
    135c:	0e 94 c6 18 	call	0x318c	; 0x318c <memcpy>
    1360:	ed 81       	ldd	r30, Y+5	; 0x05
    1362:	fe 81       	ldd	r31, Y+6	; 0x06
    1364:	ee 0d       	add	r30, r14
    1366:	ff 1d       	adc	r31, r15
    1368:	10 82       	st	Z, r1
    136a:	d8 01       	movw	r26, r16
    136c:	12 96       	adiw	r26, 0x02	; 2
    136e:	ed 91       	ld	r30, X+
    1370:	fc 91       	ld	r31, X
    1372:	13 97       	sbiw	r26, 0x03	; 3
    1374:	89 81       	ldd	r24, Y+1	; 0x01
    1376:	9a 81       	ldd	r25, Y+2	; 0x02
    1378:	09 95       	icall
    137a:	8e 2d       	mov	r24, r14
    137c:	9f 2d       	mov	r25, r15
    137e:	20 c0       	rjmp	.+64     	; 0x13c0 <print+0x138>
    1380:	e1 2c       	mov	r14, r1
    1382:	f1 2c       	mov	r15, r1
    1384:	02 c0       	rjmp	.+4      	; 0x138a <print+0x102>
    1386:	e1 2c       	mov	r14, r1
    1388:	f1 2c       	mov	r15, r1
    138a:	89 81       	ldd	r24, Y+1	; 0x01
    138c:	9a 81       	ldd	r25, Y+2	; 0x02
    138e:	00 97       	sbiw	r24, 0x00	; 0
    1390:	41 f0       	breq	.+16     	; 0x13a2 <print+0x11a>
    1392:	d8 01       	movw	r26, r16
    1394:	12 96       	adiw	r26, 0x02	; 2
    1396:	ed 91       	ld	r30, X+
    1398:	fc 91       	ld	r31, X
    139a:	13 97       	sbiw	r26, 0x03	; 3
    139c:	09 95       	icall
    139e:	1a 82       	std	Y+2, r1	; 0x02
    13a0:	19 82       	std	Y+1, r1	; 0x01
    13a2:	e1 14       	cp	r14, r1
    13a4:	f1 04       	cpc	r15, r1
    13a6:	51 f0       	breq	.+20     	; 0x13bc <print+0x134>
    13a8:	d8 01       	movw	r26, r16
    13aa:	12 96       	adiw	r26, 0x02	; 2
    13ac:	ed 91       	ld	r30, X+
    13ae:	fc 91       	ld	r31, X
    13b0:	13 97       	sbiw	r26, 0x03	; 3
    13b2:	c7 01       	movw	r24, r14
    13b4:	09 95       	icall
    13b6:	80 e0       	ldi	r24, 0x00	; 0
    13b8:	90 e0       	ldi	r25, 0x00	; 0
    13ba:	02 c0       	rjmp	.+4      	; 0x13c0 <print+0x138>
    13bc:	80 e0       	ldi	r24, 0x00	; 0
    13be:	90 e0       	ldi	r25, 0x00	; 0
    13c0:	62 96       	adiw	r28, 0x12	; 18
    13c2:	0f b6       	in	r0, 0x3f	; 63
    13c4:	f8 94       	cli
    13c6:	de bf       	out	0x3e, r29	; 62
    13c8:	0f be       	out	0x3f, r0	; 63
    13ca:	cd bf       	out	0x3d, r28	; 61
    13cc:	df 91       	pop	r29
    13ce:	cf 91       	pop	r28
    13d0:	1f 91       	pop	r17
    13d2:	0f 91       	pop	r16
    13d4:	ff 90       	pop	r15
    13d6:	ef 90       	pop	r14
    13d8:	df 90       	pop	r13
    13da:	cf 90       	pop	r12
    13dc:	08 95       	ret

000013de <print_array>:
    13de:	ef 92       	push	r14
    13e0:	ff 92       	push	r15
    13e2:	0f 93       	push	r16
    13e4:	1f 93       	push	r17
    13e6:	cf 93       	push	r28
    13e8:	df 93       	push	r29
    13ea:	dc 01       	movw	r26, r24
    13ec:	14 96       	adiw	r26, 0x04	; 4
    13ee:	0d 91       	ld	r16, X+
    13f0:	1c 91       	ld	r17, X
    13f2:	15 97       	sbiw	r26, 0x05	; 5
    13f4:	61 15       	cp	r22, r1
    13f6:	71 05       	cpc	r23, r1
    13f8:	09 f4       	brne	.+2      	; 0x13fc <print_array+0x1e>
    13fa:	68 c0       	rjmp	.+208    	; 0x14cc <print_array+0xee>
    13fc:	eb 01       	movw	r28, r22
    13fe:	61 e0       	ldi	r22, 0x01	; 1
    1400:	70 e0       	ldi	r23, 0x00	; 0
    1402:	ce 01       	movw	r24, r28
    1404:	0e 94 ac 04 	call	0x958	; 0x958 <ensure>
    1408:	00 97       	sbiw	r24, 0x00	; 0
    140a:	09 f4       	brne	.+2      	; 0x140e <print_array+0x30>
    140c:	62 c0       	rjmp	.+196    	; 0x14d2 <print_array+0xf4>
    140e:	2b e5       	ldi	r18, 0x5B	; 91
    1410:	fc 01       	movw	r30, r24
    1412:	20 83       	st	Z, r18
    1414:	8c 81       	ldd	r24, Y+4	; 0x04
    1416:	9d 81       	ldd	r25, Y+5	; 0x05
    1418:	01 96       	adiw	r24, 0x01	; 1
    141a:	9d 83       	std	Y+5, r25	; 0x05
    141c:	8c 83       	std	Y+4, r24	; 0x04
    141e:	8e 81       	ldd	r24, Y+6	; 0x06
    1420:	9f 81       	ldd	r25, Y+7	; 0x07
    1422:	01 96       	adiw	r24, 0x01	; 1
    1424:	9f 83       	std	Y+7, r25	; 0x07
    1426:	8e 83       	std	Y+6, r24	; 0x06
    1428:	3a c0       	rjmp	.+116    	; 0x149e <print_array+0xc0>
    142a:	be 01       	movw	r22, r28
    142c:	c8 01       	movw	r24, r16
    142e:	0e 94 91 08 	call	0x1122	; 0x1122 <print_value>
    1432:	00 97       	sbiw	r24, 0x00	; 0
    1434:	09 f4       	brne	.+2      	; 0x1438 <print_array+0x5a>
    1436:	55 c0       	rjmp	.+170    	; 0x14e2 <print_array+0x104>
    1438:	ce 01       	movw	r24, r28
    143a:	0e 94 00 04 	call	0x800	; 0x800 <update_offset>
    143e:	d8 01       	movw	r26, r16
    1440:	8d 91       	ld	r24, X+
    1442:	9c 91       	ld	r25, X
    1444:	89 2b       	or	r24, r25
    1446:	41 f1       	breq	.+80     	; 0x1498 <print_array+0xba>
    1448:	8a 85       	ldd	r24, Y+10	; 0x0a
    144a:	9b 85       	ldd	r25, Y+11	; 0x0b
    144c:	89 2b       	or	r24, r25
    144e:	29 f0       	breq	.+10     	; 0x145a <print_array+0x7c>
    1450:	68 94       	set
    1452:	ee 24       	eor	r14, r14
    1454:	e1 f8       	bld	r14, 1
    1456:	f1 2c       	mov	r15, r1
    1458:	03 c0       	rjmp	.+6      	; 0x1460 <print_array+0x82>
    145a:	ee 24       	eor	r14, r14
    145c:	e3 94       	inc	r14
    145e:	f1 2c       	mov	r15, r1
    1460:	b7 01       	movw	r22, r14
    1462:	6f 5f       	subi	r22, 0xFF	; 255
    1464:	7f 4f       	sbci	r23, 0xFF	; 255
    1466:	ce 01       	movw	r24, r28
    1468:	0e 94 ac 04 	call	0x958	; 0x958 <ensure>
    146c:	00 97       	sbiw	r24, 0x00	; 0
    146e:	a1 f1       	breq	.+104    	; 0x14d8 <print_array+0xfa>
    1470:	fc 01       	movw	r30, r24
    1472:	31 96       	adiw	r30, 0x01	; 1
    1474:	2c e2       	ldi	r18, 0x2C	; 44
    1476:	dc 01       	movw	r26, r24
    1478:	2c 93       	st	X, r18
    147a:	2a 85       	ldd	r18, Y+10	; 0x0a
    147c:	3b 85       	ldd	r19, Y+11	; 0x0b
    147e:	23 2b       	or	r18, r19
    1480:	21 f0       	breq	.+8      	; 0x148a <print_array+0xac>
    1482:	31 96       	adiw	r30, 0x01	; 1
    1484:	20 e2       	ldi	r18, 0x20	; 32
    1486:	11 96       	adiw	r26, 0x01	; 1
    1488:	2c 93       	st	X, r18
    148a:	10 82       	st	Z, r1
    148c:	8c 81       	ldd	r24, Y+4	; 0x04
    148e:	9d 81       	ldd	r25, Y+5	; 0x05
    1490:	e8 0e       	add	r14, r24
    1492:	f9 1e       	adc	r15, r25
    1494:	fd 82       	std	Y+5, r15	; 0x05
    1496:	ec 82       	std	Y+4, r14	; 0x04
    1498:	f8 01       	movw	r30, r16
    149a:	00 81       	ld	r16, Z
    149c:	11 81       	ldd	r17, Z+1	; 0x01
    149e:	01 15       	cp	r16, r1
    14a0:	11 05       	cpc	r17, r1
    14a2:	19 f6       	brne	.-122    	; 0x142a <print_array+0x4c>
    14a4:	62 e0       	ldi	r22, 0x02	; 2
    14a6:	70 e0       	ldi	r23, 0x00	; 0
    14a8:	ce 01       	movw	r24, r28
    14aa:	0e 94 ac 04 	call	0x958	; 0x958 <ensure>
    14ae:	00 97       	sbiw	r24, 0x00	; 0
    14b0:	b1 f0       	breq	.+44     	; 0x14de <print_array+0x100>
    14b2:	2d e5       	ldi	r18, 0x5D	; 93
    14b4:	dc 01       	movw	r26, r24
    14b6:	2c 93       	st	X, r18
    14b8:	11 96       	adiw	r26, 0x01	; 1
    14ba:	1c 92       	st	X, r1
    14bc:	8e 81       	ldd	r24, Y+6	; 0x06
    14be:	9f 81       	ldd	r25, Y+7	; 0x07
    14c0:	01 97       	sbiw	r24, 0x01	; 1
    14c2:	9f 83       	std	Y+7, r25	; 0x07
    14c4:	8e 83       	std	Y+6, r24	; 0x06
    14c6:	81 e0       	ldi	r24, 0x01	; 1
    14c8:	90 e0       	ldi	r25, 0x00	; 0
    14ca:	0b c0       	rjmp	.+22     	; 0x14e2 <print_array+0x104>
    14cc:	80 e0       	ldi	r24, 0x00	; 0
    14ce:	90 e0       	ldi	r25, 0x00	; 0
    14d0:	08 c0       	rjmp	.+16     	; 0x14e2 <print_array+0x104>
    14d2:	80 e0       	ldi	r24, 0x00	; 0
    14d4:	90 e0       	ldi	r25, 0x00	; 0
    14d6:	05 c0       	rjmp	.+10     	; 0x14e2 <print_array+0x104>
    14d8:	80 e0       	ldi	r24, 0x00	; 0
    14da:	90 e0       	ldi	r25, 0x00	; 0
    14dc:	02 c0       	rjmp	.+4      	; 0x14e2 <print_array+0x104>
    14de:	80 e0       	ldi	r24, 0x00	; 0
    14e0:	90 e0       	ldi	r25, 0x00	; 0
    14e2:	df 91       	pop	r29
    14e4:	cf 91       	pop	r28
    14e6:	1f 91       	pop	r17
    14e8:	0f 91       	pop	r16
    14ea:	ff 90       	pop	r15
    14ec:	ef 90       	pop	r14
    14ee:	08 95       	ret

000014f0 <print_object>:
    14f0:	ef 92       	push	r14
    14f2:	ff 92       	push	r15
    14f4:	0f 93       	push	r16
    14f6:	1f 93       	push	r17
    14f8:	cf 93       	push	r28
    14fa:	df 93       	push	r29
    14fc:	dc 01       	movw	r26, r24
    14fe:	14 96       	adiw	r26, 0x04	; 4
    1500:	0d 91       	ld	r16, X+
    1502:	1c 91       	ld	r17, X
    1504:	15 97       	sbiw	r26, 0x05	; 5
    1506:	61 15       	cp	r22, r1
    1508:	71 05       	cpc	r23, r1
    150a:	09 f4       	brne	.+2      	; 0x150e <print_object+0x1e>
    150c:	f5 c0       	rjmp	.+490    	; 0x16f8 <print_object+0x208>
    150e:	fb 01       	movw	r30, r22
    1510:	82 85       	ldd	r24, Z+10	; 0x0a
    1512:	93 85       	ldd	r25, Z+11	; 0x0b
    1514:	89 2b       	or	r24, r25
    1516:	29 f0       	breq	.+10     	; 0x1522 <print_object+0x32>
    1518:	68 94       	set
    151a:	ee 24       	eor	r14, r14
    151c:	e1 f8       	bld	r14, 1
    151e:	f1 2c       	mov	r15, r1
    1520:	03 c0       	rjmp	.+6      	; 0x1528 <print_object+0x38>
    1522:	ee 24       	eor	r14, r14
    1524:	e3 94       	inc	r14
    1526:	f1 2c       	mov	r15, r1
    1528:	eb 01       	movw	r28, r22
    152a:	b7 01       	movw	r22, r14
    152c:	6f 5f       	subi	r22, 0xFF	; 255
    152e:	7f 4f       	sbci	r23, 0xFF	; 255
    1530:	ce 01       	movw	r24, r28
    1532:	0e 94 ac 04 	call	0x958	; 0x958 <ensure>
    1536:	00 97       	sbiw	r24, 0x00	; 0
    1538:	09 f4       	brne	.+2      	; 0x153c <print_object+0x4c>
    153a:	e1 c0       	rjmp	.+450    	; 0x16fe <print_object+0x20e>
    153c:	2b e7       	ldi	r18, 0x7B	; 123
    153e:	dc 01       	movw	r26, r24
    1540:	2c 93       	st	X, r18
    1542:	2e 81       	ldd	r18, Y+6	; 0x06
    1544:	3f 81       	ldd	r19, Y+7	; 0x07
    1546:	2f 5f       	subi	r18, 0xFF	; 255
    1548:	3f 4f       	sbci	r19, 0xFF	; 255
    154a:	3f 83       	std	Y+7, r19	; 0x07
    154c:	2e 83       	std	Y+6, r18	; 0x06
    154e:	2a 85       	ldd	r18, Y+10	; 0x0a
    1550:	3b 85       	ldd	r19, Y+11	; 0x0b
    1552:	23 2b       	or	r18, r19
    1554:	19 f0       	breq	.+6      	; 0x155c <print_object+0x6c>
    1556:	2a e0       	ldi	r18, 0x0A	; 10
    1558:	11 96       	adiw	r26, 0x01	; 1
    155a:	2c 93       	st	X, r18
    155c:	8c 81       	ldd	r24, Y+4	; 0x04
    155e:	9d 81       	ldd	r25, Y+5	; 0x05
    1560:	e8 0e       	add	r14, r24
    1562:	f9 1e       	adc	r15, r25
    1564:	fd 82       	std	Y+5, r15	; 0x05
    1566:	ec 82       	std	Y+4, r14	; 0x04
    1568:	94 c0       	rjmp	.+296    	; 0x1692 <print_object+0x1a2>
    156a:	8a 85       	ldd	r24, Y+10	; 0x0a
    156c:	9b 85       	ldd	r25, Y+11	; 0x0b
    156e:	89 2b       	or	r24, r25
    1570:	d9 f0       	breq	.+54     	; 0x15a8 <print_object+0xb8>
    1572:	6e 81       	ldd	r22, Y+6	; 0x06
    1574:	7f 81       	ldd	r23, Y+7	; 0x07
    1576:	ce 01       	movw	r24, r28
    1578:	0e 94 ac 04 	call	0x958	; 0x958 <ensure>
    157c:	fc 01       	movw	r30, r24
    157e:	89 2b       	or	r24, r25
    1580:	09 f4       	brne	.+2      	; 0x1584 <print_object+0x94>
    1582:	c0 c0       	rjmp	.+384    	; 0x1704 <print_object+0x214>
    1584:	80 e0       	ldi	r24, 0x00	; 0
    1586:	90 e0       	ldi	r25, 0x00	; 0
    1588:	04 c0       	rjmp	.+8      	; 0x1592 <print_object+0xa2>
    158a:	29 e0       	ldi	r18, 0x09	; 9
    158c:	20 83       	st	Z, r18
    158e:	01 96       	adiw	r24, 0x01	; 1
    1590:	31 96       	adiw	r30, 0x01	; 1
    1592:	2e 81       	ldd	r18, Y+6	; 0x06
    1594:	3f 81       	ldd	r19, Y+7	; 0x07
    1596:	82 17       	cp	r24, r18
    1598:	93 07       	cpc	r25, r19
    159a:	b8 f3       	brcs	.-18     	; 0x158a <print_object+0x9a>
    159c:	8c 81       	ldd	r24, Y+4	; 0x04
    159e:	9d 81       	ldd	r25, Y+5	; 0x05
    15a0:	28 0f       	add	r18, r24
    15a2:	39 1f       	adc	r19, r25
    15a4:	3d 83       	std	Y+5, r19	; 0x05
    15a6:	2c 83       	std	Y+4, r18	; 0x04
    15a8:	be 01       	movw	r22, r28
    15aa:	f8 01       	movw	r30, r16
    15ac:	80 89       	ldd	r24, Z+16	; 0x10
    15ae:	91 89       	ldd	r25, Z+17	; 0x11
    15b0:	0e 94 85 06 	call	0xd0a	; 0xd0a <print_string_ptr>
    15b4:	00 97       	sbiw	r24, 0x00	; 0
    15b6:	09 f4       	brne	.+2      	; 0x15ba <print_object+0xca>
    15b8:	b0 c0       	rjmp	.+352    	; 0x171a <print_object+0x22a>
    15ba:	ce 01       	movw	r24, r28
    15bc:	0e 94 00 04 	call	0x800	; 0x800 <update_offset>
    15c0:	8a 85       	ldd	r24, Y+10	; 0x0a
    15c2:	9b 85       	ldd	r25, Y+11	; 0x0b
    15c4:	89 2b       	or	r24, r25
    15c6:	29 f0       	breq	.+10     	; 0x15d2 <print_object+0xe2>
    15c8:	68 94       	set
    15ca:	ee 24       	eor	r14, r14
    15cc:	e1 f8       	bld	r14, 1
    15ce:	f1 2c       	mov	r15, r1
    15d0:	03 c0       	rjmp	.+6      	; 0x15d8 <print_object+0xe8>
    15d2:	ee 24       	eor	r14, r14
    15d4:	e3 94       	inc	r14
    15d6:	f1 2c       	mov	r15, r1
    15d8:	b7 01       	movw	r22, r14
    15da:	ce 01       	movw	r24, r28
    15dc:	0e 94 ac 04 	call	0x958	; 0x958 <ensure>
    15e0:	00 97       	sbiw	r24, 0x00	; 0
    15e2:	09 f4       	brne	.+2      	; 0x15e6 <print_object+0xf6>
    15e4:	92 c0       	rjmp	.+292    	; 0x170a <print_object+0x21a>
    15e6:	2a e3       	ldi	r18, 0x3A	; 58
    15e8:	dc 01       	movw	r26, r24
    15ea:	2c 93       	st	X, r18
    15ec:	2a 85       	ldd	r18, Y+10	; 0x0a
    15ee:	3b 85       	ldd	r19, Y+11	; 0x0b
    15f0:	23 2b       	or	r18, r19
    15f2:	19 f0       	breq	.+6      	; 0x15fa <print_object+0x10a>
    15f4:	29 e0       	ldi	r18, 0x09	; 9
    15f6:	11 96       	adiw	r26, 0x01	; 1
    15f8:	2c 93       	st	X, r18
    15fa:	6c 81       	ldd	r22, Y+4	; 0x04
    15fc:	7d 81       	ldd	r23, Y+5	; 0x05
    15fe:	6e 0d       	add	r22, r14
    1600:	7f 1d       	adc	r23, r15
    1602:	7d 83       	std	Y+5, r23	; 0x05
    1604:	6c 83       	std	Y+4, r22	; 0x04
    1606:	be 01       	movw	r22, r28
    1608:	c8 01       	movw	r24, r16
    160a:	0e 94 91 08 	call	0x1122	; 0x1122 <print_value>
    160e:	00 97       	sbiw	r24, 0x00	; 0
    1610:	09 f4       	brne	.+2      	; 0x1614 <print_object+0x124>
    1612:	83 c0       	rjmp	.+262    	; 0x171a <print_object+0x22a>
    1614:	ce 01       	movw	r24, r28
    1616:	0e 94 00 04 	call	0x800	; 0x800 <update_offset>
    161a:	8a 85       	ldd	r24, Y+10	; 0x0a
    161c:	9b 85       	ldd	r25, Y+11	; 0x0b
    161e:	89 2b       	or	r24, r25
    1620:	19 f0       	breq	.+6      	; 0x1628 <print_object+0x138>
    1622:	21 e0       	ldi	r18, 0x01	; 1
    1624:	30 e0       	ldi	r19, 0x00	; 0
    1626:	02 c0       	rjmp	.+4      	; 0x162c <print_object+0x13c>
    1628:	20 e0       	ldi	r18, 0x00	; 0
    162a:	30 e0       	ldi	r19, 0x00	; 0
    162c:	f8 01       	movw	r30, r16
    162e:	80 81       	ld	r24, Z
    1630:	91 81       	ldd	r25, Z+1	; 0x01
    1632:	89 2b       	or	r24, r25
    1634:	19 f0       	breq	.+6      	; 0x163c <print_object+0x14c>
    1636:	81 e0       	ldi	r24, 0x01	; 1
    1638:	90 e0       	ldi	r25, 0x00	; 0
    163a:	02 c0       	rjmp	.+4      	; 0x1640 <print_object+0x150>
    163c:	80 e0       	ldi	r24, 0x00	; 0
    163e:	90 e0       	ldi	r25, 0x00	; 0
    1640:	79 01       	movw	r14, r18
    1642:	e8 0e       	add	r14, r24
    1644:	f9 1e       	adc	r15, r25
    1646:	b7 01       	movw	r22, r14
    1648:	6f 5f       	subi	r22, 0xFF	; 255
    164a:	7f 4f       	sbci	r23, 0xFF	; 255
    164c:	ce 01       	movw	r24, r28
    164e:	0e 94 ac 04 	call	0x958	; 0x958 <ensure>
    1652:	00 97       	sbiw	r24, 0x00	; 0
    1654:	09 f4       	brne	.+2      	; 0x1658 <print_object+0x168>
    1656:	5c c0       	rjmp	.+184    	; 0x1710 <print_object+0x220>
    1658:	d8 01       	movw	r26, r16
    165a:	2d 91       	ld	r18, X+
    165c:	3c 91       	ld	r19, X
    165e:	23 2b       	or	r18, r19
    1660:	31 f0       	breq	.+12     	; 0x166e <print_object+0x17e>
    1662:	fc 01       	movw	r30, r24
    1664:	31 96       	adiw	r30, 0x01	; 1
    1666:	2c e2       	ldi	r18, 0x2C	; 44
    1668:	dc 01       	movw	r26, r24
    166a:	2c 93       	st	X, r18
    166c:	01 c0       	rjmp	.+2      	; 0x1670 <print_object+0x180>
    166e:	fc 01       	movw	r30, r24
    1670:	8a 85       	ldd	r24, Y+10	; 0x0a
    1672:	9b 85       	ldd	r25, Y+11	; 0x0b
    1674:	89 2b       	or	r24, r25
    1676:	19 f0       	breq	.+6      	; 0x167e <print_object+0x18e>
    1678:	8a e0       	ldi	r24, 0x0A	; 10
    167a:	80 83       	st	Z, r24
    167c:	31 96       	adiw	r30, 0x01	; 1
    167e:	10 82       	st	Z, r1
    1680:	8c 81       	ldd	r24, Y+4	; 0x04
    1682:	9d 81       	ldd	r25, Y+5	; 0x05
    1684:	e8 0e       	add	r14, r24
    1686:	f9 1e       	adc	r15, r25
    1688:	fd 82       	std	Y+5, r15	; 0x05
    168a:	ec 82       	std	Y+4, r14	; 0x04
    168c:	f8 01       	movw	r30, r16
    168e:	00 81       	ld	r16, Z
    1690:	11 81       	ldd	r17, Z+1	; 0x01
    1692:	01 15       	cp	r16, r1
    1694:	11 05       	cpc	r17, r1
    1696:	09 f0       	breq	.+2      	; 0x169a <print_object+0x1aa>
    1698:	68 cf       	rjmp	.-304    	; 0x156a <print_object+0x7a>
    169a:	8a 85       	ldd	r24, Y+10	; 0x0a
    169c:	9b 85       	ldd	r25, Y+11	; 0x0b
    169e:	89 2b       	or	r24, r25
    16a0:	29 f0       	breq	.+10     	; 0x16ac <print_object+0x1bc>
    16a2:	6e 81       	ldd	r22, Y+6	; 0x06
    16a4:	7f 81       	ldd	r23, Y+7	; 0x07
    16a6:	6f 5f       	subi	r22, 0xFF	; 255
    16a8:	7f 4f       	sbci	r23, 0xFF	; 255
    16aa:	02 c0       	rjmp	.+4      	; 0x16b0 <print_object+0x1c0>
    16ac:	62 e0       	ldi	r22, 0x02	; 2
    16ae:	70 e0       	ldi	r23, 0x00	; 0
    16b0:	ce 01       	movw	r24, r28
    16b2:	0e 94 ac 04 	call	0x958	; 0x958 <ensure>
    16b6:	fc 01       	movw	r30, r24
    16b8:	89 2b       	or	r24, r25
    16ba:	69 f1       	breq	.+90     	; 0x1716 <print_object+0x226>
    16bc:	8a 85       	ldd	r24, Y+10	; 0x0a
    16be:	9b 85       	ldd	r25, Y+11	; 0x0b
    16c0:	89 2b       	or	r24, r25
    16c2:	31 f4       	brne	.+12     	; 0x16d0 <print_object+0x1e0>
    16c4:	0e c0       	rjmp	.+28     	; 0x16e2 <print_object+0x1f2>
    16c6:	29 e0       	ldi	r18, 0x09	; 9
    16c8:	20 83       	st	Z, r18
    16ca:	01 96       	adiw	r24, 0x01	; 1
    16cc:	31 96       	adiw	r30, 0x01	; 1
    16ce:	02 c0       	rjmp	.+4      	; 0x16d4 <print_object+0x1e4>
    16d0:	80 e0       	ldi	r24, 0x00	; 0
    16d2:	90 e0       	ldi	r25, 0x00	; 0
    16d4:	2e 81       	ldd	r18, Y+6	; 0x06
    16d6:	3f 81       	ldd	r19, Y+7	; 0x07
    16d8:	21 50       	subi	r18, 0x01	; 1
    16da:	31 09       	sbc	r19, r1
    16dc:	82 17       	cp	r24, r18
    16de:	93 07       	cpc	r25, r19
    16e0:	90 f3       	brcs	.-28     	; 0x16c6 <print_object+0x1d6>
    16e2:	8d e7       	ldi	r24, 0x7D	; 125
    16e4:	80 83       	st	Z, r24
    16e6:	11 82       	std	Z+1, r1	; 0x01
    16e8:	8e 81       	ldd	r24, Y+6	; 0x06
    16ea:	9f 81       	ldd	r25, Y+7	; 0x07
    16ec:	01 97       	sbiw	r24, 0x01	; 1
    16ee:	9f 83       	std	Y+7, r25	; 0x07
    16f0:	8e 83       	std	Y+6, r24	; 0x06
    16f2:	81 e0       	ldi	r24, 0x01	; 1
    16f4:	90 e0       	ldi	r25, 0x00	; 0
    16f6:	11 c0       	rjmp	.+34     	; 0x171a <print_object+0x22a>
    16f8:	80 e0       	ldi	r24, 0x00	; 0
    16fa:	90 e0       	ldi	r25, 0x00	; 0
    16fc:	0e c0       	rjmp	.+28     	; 0x171a <print_object+0x22a>
    16fe:	80 e0       	ldi	r24, 0x00	; 0
    1700:	90 e0       	ldi	r25, 0x00	; 0
    1702:	0b c0       	rjmp	.+22     	; 0x171a <print_object+0x22a>
    1704:	80 e0       	ldi	r24, 0x00	; 0
    1706:	90 e0       	ldi	r25, 0x00	; 0
    1708:	08 c0       	rjmp	.+16     	; 0x171a <print_object+0x22a>
    170a:	80 e0       	ldi	r24, 0x00	; 0
    170c:	90 e0       	ldi	r25, 0x00	; 0
    170e:	05 c0       	rjmp	.+10     	; 0x171a <print_object+0x22a>
    1710:	80 e0       	ldi	r24, 0x00	; 0
    1712:	90 e0       	ldi	r25, 0x00	; 0
    1714:	02 c0       	rjmp	.+4      	; 0x171a <print_object+0x22a>
    1716:	80 e0       	ldi	r24, 0x00	; 0
    1718:	90 e0       	ldi	r25, 0x00	; 0
    171a:	df 91       	pop	r29
    171c:	cf 91       	pop	r28
    171e:	1f 91       	pop	r17
    1720:	0f 91       	pop	r16
    1722:	ff 90       	pop	r15
    1724:	ef 90       	pop	r14
    1726:	08 95       	ret

00001728 <case_insensitive_strcmp>:
    1728:	cf 92       	push	r12
    172a:	df 92       	push	r13
    172c:	ff 92       	push	r15
    172e:	0f 93       	push	r16
    1730:	1f 93       	push	r17
    1732:	cf 93       	push	r28
    1734:	df 93       	push	r29
    1736:	ec 01       	movw	r28, r24
    1738:	8b 01       	movw	r16, r22
    173a:	00 97       	sbiw	r24, 0x00	; 0
    173c:	f9 f0       	breq	.+62     	; 0x177c <case_insensitive_strcmp+0x54>
    173e:	61 15       	cp	r22, r1
    1740:	71 05       	cpc	r23, r1
    1742:	f9 f0       	breq	.+62     	; 0x1782 <case_insensitive_strcmp+0x5a>
    1744:	86 17       	cp	r24, r22
    1746:	97 07       	cpc	r25, r23
    1748:	31 f4       	brne	.+12     	; 0x1756 <case_insensitive_strcmp+0x2e>
    174a:	1e c0       	rjmp	.+60     	; 0x1788 <case_insensitive_strcmp+0x60>
    174c:	ff 20       	and	r15, r15
    174e:	f9 f0       	breq	.+62     	; 0x178e <case_insensitive_strcmp+0x66>
    1750:	21 96       	adiw	r28, 0x01	; 1
    1752:	0f 5f       	subi	r16, 0xFF	; 255
    1754:	1f 4f       	sbci	r17, 0xFF	; 255
    1756:	f8 80       	ld	r15, Y
    1758:	8f 2d       	mov	r24, r15
    175a:	90 e0       	ldi	r25, 0x00	; 0
    175c:	0e 94 a6 18 	call	0x314c	; 0x314c <tolower>
    1760:	6c 01       	movw	r12, r24
    1762:	f8 01       	movw	r30, r16
    1764:	80 81       	ld	r24, Z
    1766:	90 e0       	ldi	r25, 0x00	; 0
    1768:	0e 94 a6 18 	call	0x314c	; 0x314c <tolower>
    176c:	c8 16       	cp	r12, r24
    176e:	d9 06       	cpc	r13, r25
    1770:	69 f3       	breq	.-38     	; 0x174c <case_insensitive_strcmp+0x24>
    1772:	96 01       	movw	r18, r12
    1774:	28 1b       	sub	r18, r24
    1776:	39 0b       	sbc	r19, r25
    1778:	c9 01       	movw	r24, r18
    177a:	0b c0       	rjmp	.+22     	; 0x1792 <case_insensitive_strcmp+0x6a>
    177c:	81 e0       	ldi	r24, 0x01	; 1
    177e:	90 e0       	ldi	r25, 0x00	; 0
    1780:	08 c0       	rjmp	.+16     	; 0x1792 <case_insensitive_strcmp+0x6a>
    1782:	81 e0       	ldi	r24, 0x01	; 1
    1784:	90 e0       	ldi	r25, 0x00	; 0
    1786:	05 c0       	rjmp	.+10     	; 0x1792 <case_insensitive_strcmp+0x6a>
    1788:	80 e0       	ldi	r24, 0x00	; 0
    178a:	90 e0       	ldi	r25, 0x00	; 0
    178c:	02 c0       	rjmp	.+4      	; 0x1792 <case_insensitive_strcmp+0x6a>
    178e:	80 e0       	ldi	r24, 0x00	; 0
    1790:	90 e0       	ldi	r25, 0x00	; 0
    1792:	df 91       	pop	r29
    1794:	cf 91       	pop	r28
    1796:	1f 91       	pop	r17
    1798:	0f 91       	pop	r16
    179a:	ff 90       	pop	r15
    179c:	df 90       	pop	r13
    179e:	cf 90       	pop	r12
    17a0:	08 95       	ret

000017a2 <get_object_item>:
    17a2:	0f 93       	push	r16
    17a4:	1f 93       	push	r17
    17a6:	cf 93       	push	r28
    17a8:	df 93       	push	r29
    17aa:	00 97       	sbiw	r24, 0x00	; 0
    17ac:	79 f1       	breq	.+94     	; 0x180c <get_object_item+0x6a>
    17ae:	61 15       	cp	r22, r1
    17b0:	71 05       	cpc	r23, r1
    17b2:	79 f1       	breq	.+94     	; 0x1812 <get_object_item+0x70>
    17b4:	8b 01       	movw	r16, r22
    17b6:	fc 01       	movw	r30, r24
    17b8:	c4 81       	ldd	r28, Z+4	; 0x04
    17ba:	d5 81       	ldd	r29, Z+5	; 0x05
    17bc:	45 2b       	or	r20, r21
    17be:	21 f4       	brne	.+8      	; 0x17c8 <get_object_item+0x26>
    17c0:	13 c0       	rjmp	.+38     	; 0x17e8 <get_object_item+0x46>
    17c2:	09 90       	ld	r0, Y+
    17c4:	d8 81       	ld	r29, Y
    17c6:	c0 2d       	mov	r28, r0
    17c8:	20 97       	sbiw	r28, 0x00	; 0
    17ca:	b9 f0       	breq	.+46     	; 0x17fa <get_object_item+0x58>
    17cc:	68 89       	ldd	r22, Y+16	; 0x10
    17ce:	79 89       	ldd	r23, Y+17	; 0x11
    17d0:	61 15       	cp	r22, r1
    17d2:	71 05       	cpc	r23, r1
    17d4:	91 f0       	breq	.+36     	; 0x17fa <get_object_item+0x58>
    17d6:	c8 01       	movw	r24, r16
    17d8:	0e 94 cf 18 	call	0x319e	; 0x319e <strcmp>
    17dc:	89 2b       	or	r24, r25
    17de:	89 f7       	brne	.-30     	; 0x17c2 <get_object_item+0x20>
    17e0:	0c c0       	rjmp	.+24     	; 0x17fa <get_object_item+0x58>
    17e2:	09 90       	ld	r0, Y+
    17e4:	d8 81       	ld	r29, Y
    17e6:	c0 2d       	mov	r28, r0
    17e8:	20 97       	sbiw	r28, 0x00	; 0
    17ea:	39 f0       	breq	.+14     	; 0x17fa <get_object_item+0x58>
    17ec:	68 89       	ldd	r22, Y+16	; 0x10
    17ee:	79 89       	ldd	r23, Y+17	; 0x11
    17f0:	c8 01       	movw	r24, r16
    17f2:	0e 94 94 0b 	call	0x1728	; 0x1728 <case_insensitive_strcmp>
    17f6:	89 2b       	or	r24, r25
    17f8:	a1 f7       	brne	.-24     	; 0x17e2 <get_object_item+0x40>
    17fa:	20 97       	sbiw	r28, 0x00	; 0
    17fc:	69 f0       	breq	.+26     	; 0x1818 <get_object_item+0x76>
    17fe:	88 89       	ldd	r24, Y+16	; 0x10
    1800:	99 89       	ldd	r25, Y+17	; 0x11
    1802:	89 2b       	or	r24, r25
    1804:	61 f4       	brne	.+24     	; 0x181e <get_object_item+0x7c>
    1806:	80 e0       	ldi	r24, 0x00	; 0
    1808:	90 e0       	ldi	r25, 0x00	; 0
    180a:	0b c0       	rjmp	.+22     	; 0x1822 <get_object_item+0x80>
    180c:	80 e0       	ldi	r24, 0x00	; 0
    180e:	90 e0       	ldi	r25, 0x00	; 0
    1810:	08 c0       	rjmp	.+16     	; 0x1822 <get_object_item+0x80>
    1812:	80 e0       	ldi	r24, 0x00	; 0
    1814:	90 e0       	ldi	r25, 0x00	; 0
    1816:	05 c0       	rjmp	.+10     	; 0x1822 <get_object_item+0x80>
    1818:	80 e0       	ldi	r24, 0x00	; 0
    181a:	90 e0       	ldi	r25, 0x00	; 0
    181c:	02 c0       	rjmp	.+4      	; 0x1822 <get_object_item+0x80>
    181e:	8c 2f       	mov	r24, r28
    1820:	9d 2f       	mov	r25, r29
    1822:	df 91       	pop	r29
    1824:	cf 91       	pop	r28
    1826:	1f 91       	pop	r17
    1828:	0f 91       	pop	r16
    182a:	08 95       	ret

0000182c <cJSON_Delete>:
    182c:	0f 93       	push	r16
    182e:	1f 93       	push	r17
    1830:	cf 93       	push	r28
    1832:	df 93       	push	r29
    1834:	ec 01       	movw	r28, r24
    1836:	32 c0       	rjmp	.+100    	; 0x189c <cJSON_Delete+0x70>
    1838:	08 81       	ld	r16, Y
    183a:	19 81       	ldd	r17, Y+1	; 0x01
    183c:	8e 81       	ldd	r24, Y+6	; 0x06
    183e:	9f 81       	ldd	r25, Y+7	; 0x07
    1840:	90 fd       	sbrc	r25, 0
    1842:	06 c0       	rjmp	.+12     	; 0x1850 <cJSON_Delete+0x24>
    1844:	8c 81       	ldd	r24, Y+4	; 0x04
    1846:	9d 81       	ldd	r25, Y+5	; 0x05
    1848:	00 97       	sbiw	r24, 0x00	; 0
    184a:	11 f0       	breq	.+4      	; 0x1850 <cJSON_Delete+0x24>
    184c:	0e 94 16 0c 	call	0x182c	; 0x182c <cJSON_Delete>
    1850:	8e 81       	ldd	r24, Y+6	; 0x06
    1852:	9f 81       	ldd	r25, Y+7	; 0x07
    1854:	90 fd       	sbrc	r25, 0
    1856:	0b c0       	rjmp	.+22     	; 0x186e <cJSON_Delete+0x42>
    1858:	88 85       	ldd	r24, Y+8	; 0x08
    185a:	99 85       	ldd	r25, Y+9	; 0x09
    185c:	00 97       	sbiw	r24, 0x00	; 0
    185e:	39 f0       	breq	.+14     	; 0x186e <cJSON_Delete+0x42>
    1860:	e0 91 08 01 	lds	r30, 0x0108	; 0x800108 <global_hooks+0x2>
    1864:	f0 91 09 01 	lds	r31, 0x0109	; 0x800109 <global_hooks+0x3>
    1868:	09 95       	icall
    186a:	19 86       	std	Y+9, r1	; 0x09
    186c:	18 86       	std	Y+8, r1	; 0x08
    186e:	8e 81       	ldd	r24, Y+6	; 0x06
    1870:	9f 81       	ldd	r25, Y+7	; 0x07
    1872:	91 fd       	sbrc	r25, 1
    1874:	0b c0       	rjmp	.+22     	; 0x188c <cJSON_Delete+0x60>
    1876:	88 89       	ldd	r24, Y+16	; 0x10
    1878:	99 89       	ldd	r25, Y+17	; 0x11
    187a:	00 97       	sbiw	r24, 0x00	; 0
    187c:	39 f0       	breq	.+14     	; 0x188c <cJSON_Delete+0x60>
    187e:	e0 91 08 01 	lds	r30, 0x0108	; 0x800108 <global_hooks+0x2>
    1882:	f0 91 09 01 	lds	r31, 0x0109	; 0x800109 <global_hooks+0x3>
    1886:	09 95       	icall
    1888:	19 8a       	std	Y+17, r1	; 0x11
    188a:	18 8a       	std	Y+16, r1	; 0x10
    188c:	e0 91 08 01 	lds	r30, 0x0108	; 0x800108 <global_hooks+0x2>
    1890:	f0 91 09 01 	lds	r31, 0x0109	; 0x800109 <global_hooks+0x3>
    1894:	ce 01       	movw	r24, r28
    1896:	09 95       	icall
    1898:	c0 2f       	mov	r28, r16
    189a:	d1 2f       	mov	r29, r17
    189c:	20 97       	sbiw	r28, 0x00	; 0
    189e:	61 f6       	brne	.-104    	; 0x1838 <cJSON_Delete+0xc>
    18a0:	df 91       	pop	r29
    18a2:	cf 91       	pop	r28
    18a4:	1f 91       	pop	r17
    18a6:	0f 91       	pop	r16
    18a8:	08 95       	ret

000018aa <parse_array>:
    18aa:	af 92       	push	r10
    18ac:	bf 92       	push	r11
    18ae:	cf 92       	push	r12
    18b0:	df 92       	push	r13
    18b2:	ef 92       	push	r14
    18b4:	ff 92       	push	r15
    18b6:	0f 93       	push	r16
    18b8:	1f 93       	push	r17
    18ba:	cf 93       	push	r28
    18bc:	df 93       	push	r29
    18be:	fb 01       	movw	r30, r22
    18c0:	26 81       	ldd	r18, Z+6	; 0x06
    18c2:	37 81       	ldd	r19, Z+7	; 0x07
    18c4:	28 3e       	cpi	r18, 0xE8	; 232
    18c6:	f3 e0       	ldi	r31, 0x03	; 3
    18c8:	3f 07       	cpc	r19, r31
    18ca:	08 f0       	brcs	.+2      	; 0x18ce <parse_array+0x24>
    18cc:	b2 c0       	rjmp	.+356    	; 0x1a32 <parse_array+0x188>
    18ce:	eb 01       	movw	r28, r22
    18d0:	8c 01       	movw	r16, r24
    18d2:	2f 5f       	subi	r18, 0xFF	; 255
    18d4:	3f 4f       	sbci	r19, 0xFF	; 255
    18d6:	3f 83       	std	Y+7, r19	; 0x07
    18d8:	2e 83       	std	Y+6, r18	; 0x06
    18da:	e8 81       	ld	r30, Y
    18dc:	f9 81       	ldd	r31, Y+1	; 0x01
    18de:	8c 81       	ldd	r24, Y+4	; 0x04
    18e0:	9d 81       	ldd	r25, Y+5	; 0x05
    18e2:	e8 0f       	add	r30, r24
    18e4:	f9 1f       	adc	r31, r25
    18e6:	20 81       	ld	r18, Z
    18e8:	2b 35       	cpi	r18, 0x5B	; 91
    18ea:	09 f0       	breq	.+2      	; 0x18ee <parse_array+0x44>
    18ec:	97 c0       	rjmp	.+302    	; 0x1a1c <parse_array+0x172>
    18ee:	01 96       	adiw	r24, 0x01	; 1
    18f0:	9d 83       	std	Y+5, r25	; 0x05
    18f2:	8c 83       	std	Y+4, r24	; 0x04
    18f4:	cb 01       	movw	r24, r22
    18f6:	0e 94 79 03 	call	0x6f2	; 0x6f2 <buffer_skip_whitespace>
    18fa:	20 97       	sbiw	r28, 0x00	; 0
    18fc:	81 f0       	breq	.+32     	; 0x191e <parse_array+0x74>
    18fe:	8c 81       	ldd	r24, Y+4	; 0x04
    1900:	9d 81       	ldd	r25, Y+5	; 0x05
    1902:	2a 81       	ldd	r18, Y+2	; 0x02
    1904:	3b 81       	ldd	r19, Y+3	; 0x03
    1906:	82 17       	cp	r24, r18
    1908:	93 07       	cpc	r25, r19
    190a:	48 f4       	brcc	.+18     	; 0x191e <parse_array+0x74>
    190c:	28 81       	ld	r18, Y
    190e:	39 81       	ldd	r19, Y+1	; 0x01
    1910:	f9 01       	movw	r30, r18
    1912:	e8 0f       	add	r30, r24
    1914:	f9 1f       	adc	r31, r25
    1916:	80 81       	ld	r24, Z
    1918:	8d 35       	cpi	r24, 0x5D	; 93
    191a:	09 f4       	brne	.+2      	; 0x191e <parse_array+0x74>
    191c:	61 c0       	rjmp	.+194    	; 0x19e0 <parse_array+0x136>
    191e:	20 97       	sbiw	r28, 0x00	; 0
    1920:	39 f0       	breq	.+14     	; 0x1930 <parse_array+0x86>
    1922:	8c 81       	ldd	r24, Y+4	; 0x04
    1924:	9d 81       	ldd	r25, Y+5	; 0x05
    1926:	2a 81       	ldd	r18, Y+2	; 0x02
    1928:	3b 81       	ldd	r19, Y+3	; 0x03
    192a:	82 17       	cp	r24, r18
    192c:	93 07       	cpc	r25, r19
    192e:	40 f0       	brcs	.+16     	; 0x1940 <parse_array+0x96>
    1930:	8c 81       	ldd	r24, Y+4	; 0x04
    1932:	9d 81       	ldd	r25, Y+5	; 0x05
    1934:	01 97       	sbiw	r24, 0x01	; 1
    1936:	9d 83       	std	Y+5, r25	; 0x05
    1938:	8c 83       	std	Y+4, r24	; 0x04
    193a:	e1 2c       	mov	r14, r1
    193c:	f1 2c       	mov	r15, r1
    193e:	70 c0       	rjmp	.+224    	; 0x1a20 <parse_array+0x176>
    1940:	01 97       	sbiw	r24, 0x01	; 1
    1942:	9d 83       	std	Y+5, r25	; 0x05
    1944:	8c 83       	std	Y+4, r24	; 0x04
    1946:	a1 2c       	mov	r10, r1
    1948:	b1 2c       	mov	r11, r1
    194a:	e1 2c       	mov	r14, r1
    194c:	f1 2c       	mov	r15, r1
    194e:	ce 01       	movw	r24, r28
    1950:	08 96       	adiw	r24, 0x08	; 8
    1952:	0e 94 3b 05 	call	0xa76	; 0xa76 <cJSON_New_Item>
    1956:	6c 01       	movw	r12, r24
    1958:	00 97       	sbiw	r24, 0x00	; 0
    195a:	09 f4       	brne	.+2      	; 0x195e <parse_array+0xb4>
    195c:	61 c0       	rjmp	.+194    	; 0x1a20 <parse_array+0x176>
    195e:	e1 14       	cp	r14, r1
    1960:	f1 04       	cpc	r15, r1
    1962:	39 f0       	breq	.+14     	; 0x1972 <parse_array+0xc8>
    1964:	f5 01       	movw	r30, r10
    1966:	91 83       	std	Z+1, r25	; 0x01
    1968:	80 83       	st	Z, r24
    196a:	fc 01       	movw	r30, r24
    196c:	b3 82       	std	Z+3, r11	; 0x03
    196e:	a2 82       	std	Z+2, r10	; 0x02
    1970:	01 c0       	rjmp	.+2      	; 0x1974 <parse_array+0xca>
    1972:	7c 01       	movw	r14, r24
    1974:	8c 81       	ldd	r24, Y+4	; 0x04
    1976:	9d 81       	ldd	r25, Y+5	; 0x05
    1978:	01 96       	adiw	r24, 0x01	; 1
    197a:	9d 83       	std	Y+5, r25	; 0x05
    197c:	8c 83       	std	Y+4, r24	; 0x04
    197e:	ce 01       	movw	r24, r28
    1980:	0e 94 79 03 	call	0x6f2	; 0x6f2 <buffer_skip_whitespace>
    1984:	be 01       	movw	r22, r28
    1986:	c6 01       	movw	r24, r12
    1988:	0e 94 29 0d 	call	0x1a52	; 0x1a52 <parse_value>
    198c:	89 2b       	or	r24, r25
    198e:	09 f4       	brne	.+2      	; 0x1992 <parse_array+0xe8>
    1990:	47 c0       	rjmp	.+142    	; 0x1a20 <parse_array+0x176>
    1992:	ce 01       	movw	r24, r28
    1994:	0e 94 79 03 	call	0x6f2	; 0x6f2 <buffer_skip_whitespace>
    1998:	20 97       	sbiw	r28, 0x00	; 0
    199a:	81 f0       	breq	.+32     	; 0x19bc <parse_array+0x112>
    199c:	8c 81       	ldd	r24, Y+4	; 0x04
    199e:	9d 81       	ldd	r25, Y+5	; 0x05
    19a0:	2a 81       	ldd	r18, Y+2	; 0x02
    19a2:	3b 81       	ldd	r19, Y+3	; 0x03
    19a4:	82 17       	cp	r24, r18
    19a6:	93 07       	cpc	r25, r19
    19a8:	48 f4       	brcc	.+18     	; 0x19bc <parse_array+0x112>
    19aa:	28 81       	ld	r18, Y
    19ac:	39 81       	ldd	r19, Y+1	; 0x01
    19ae:	f9 01       	movw	r30, r18
    19b0:	e8 0f       	add	r30, r24
    19b2:	f9 1f       	adc	r31, r25
    19b4:	80 81       	ld	r24, Z
    19b6:	56 01       	movw	r10, r12
    19b8:	8c 32       	cpi	r24, 0x2C	; 44
    19ba:	49 f2       	breq	.-110    	; 0x194e <parse_array+0xa4>
    19bc:	20 97       	sbiw	r28, 0x00	; 0
    19be:	81 f1       	breq	.+96     	; 0x1a20 <parse_array+0x176>
    19c0:	8c 81       	ldd	r24, Y+4	; 0x04
    19c2:	9d 81       	ldd	r25, Y+5	; 0x05
    19c4:	2a 81       	ldd	r18, Y+2	; 0x02
    19c6:	3b 81       	ldd	r19, Y+3	; 0x03
    19c8:	82 17       	cp	r24, r18
    19ca:	93 07       	cpc	r25, r19
    19cc:	48 f5       	brcc	.+82     	; 0x1a20 <parse_array+0x176>
    19ce:	28 81       	ld	r18, Y
    19d0:	39 81       	ldd	r19, Y+1	; 0x01
    19d2:	f9 01       	movw	r30, r18
    19d4:	e8 0f       	add	r30, r24
    19d6:	f9 1f       	adc	r31, r25
    19d8:	80 81       	ld	r24, Z
    19da:	8d 35       	cpi	r24, 0x5D	; 93
    19dc:	09 f5       	brne	.+66     	; 0x1a20 <parse_array+0x176>
    19de:	04 c0       	rjmp	.+8      	; 0x19e8 <parse_array+0x13e>
    19e0:	c1 2c       	mov	r12, r1
    19e2:	d1 2c       	mov	r13, r1
    19e4:	e1 2c       	mov	r14, r1
    19e6:	f1 2c       	mov	r15, r1
    19e8:	8e 81       	ldd	r24, Y+6	; 0x06
    19ea:	9f 81       	ldd	r25, Y+7	; 0x07
    19ec:	01 97       	sbiw	r24, 0x01	; 1
    19ee:	9f 83       	std	Y+7, r25	; 0x07
    19f0:	8e 83       	std	Y+6, r24	; 0x06
    19f2:	e1 14       	cp	r14, r1
    19f4:	f1 04       	cpc	r15, r1
    19f6:	19 f0       	breq	.+6      	; 0x19fe <parse_array+0x154>
    19f8:	f7 01       	movw	r30, r14
    19fa:	d3 82       	std	Z+3, r13	; 0x03
    19fc:	c2 82       	std	Z+2, r12	; 0x02
    19fe:	80 e2       	ldi	r24, 0x20	; 32
    1a00:	90 e0       	ldi	r25, 0x00	; 0
    1a02:	f8 01       	movw	r30, r16
    1a04:	97 83       	std	Z+7, r25	; 0x07
    1a06:	86 83       	std	Z+6, r24	; 0x06
    1a08:	f5 82       	std	Z+5, r15	; 0x05
    1a0a:	e4 82       	std	Z+4, r14	; 0x04
    1a0c:	8c 81       	ldd	r24, Y+4	; 0x04
    1a0e:	9d 81       	ldd	r25, Y+5	; 0x05
    1a10:	01 96       	adiw	r24, 0x01	; 1
    1a12:	9d 83       	std	Y+5, r25	; 0x05
    1a14:	8c 83       	std	Y+4, r24	; 0x04
    1a16:	81 e0       	ldi	r24, 0x01	; 1
    1a18:	90 e0       	ldi	r25, 0x00	; 0
    1a1a:	10 c0       	rjmp	.+32     	; 0x1a3c <parse_array+0x192>
    1a1c:	e1 2c       	mov	r14, r1
    1a1e:	f1 2c       	mov	r15, r1
    1a20:	e1 14       	cp	r14, r1
    1a22:	f1 04       	cpc	r15, r1
    1a24:	49 f0       	breq	.+18     	; 0x1a38 <parse_array+0x18e>
    1a26:	c7 01       	movw	r24, r14
    1a28:	0e 94 16 0c 	call	0x182c	; 0x182c <cJSON_Delete>
    1a2c:	80 e0       	ldi	r24, 0x00	; 0
    1a2e:	90 e0       	ldi	r25, 0x00	; 0
    1a30:	05 c0       	rjmp	.+10     	; 0x1a3c <parse_array+0x192>
    1a32:	80 e0       	ldi	r24, 0x00	; 0
    1a34:	90 e0       	ldi	r25, 0x00	; 0
    1a36:	02 c0       	rjmp	.+4      	; 0x1a3c <parse_array+0x192>
    1a38:	80 e0       	ldi	r24, 0x00	; 0
    1a3a:	90 e0       	ldi	r25, 0x00	; 0
    1a3c:	df 91       	pop	r29
    1a3e:	cf 91       	pop	r28
    1a40:	1f 91       	pop	r17
    1a42:	0f 91       	pop	r16
    1a44:	ff 90       	pop	r15
    1a46:	ef 90       	pop	r14
    1a48:	df 90       	pop	r13
    1a4a:	cf 90       	pop	r12
    1a4c:	bf 90       	pop	r11
    1a4e:	af 90       	pop	r10
    1a50:	08 95       	ret

00001a52 <parse_value>:
    1a52:	ef 92       	push	r14
    1a54:	ff 92       	push	r15
    1a56:	0f 93       	push	r16
    1a58:	1f 93       	push	r17
    1a5a:	cf 93       	push	r28
    1a5c:	df 93       	push	r29
    1a5e:	61 15       	cp	r22, r1
    1a60:	71 05       	cpc	r23, r1
    1a62:	09 f4       	brne	.+2      	; 0x1a66 <parse_value+0x14>
    1a64:	c9 c0       	rjmp	.+402    	; 0x1bf8 <parse_value+0x1a6>
    1a66:	fb 01       	movw	r30, r22
    1a68:	00 81       	ld	r16, Z
    1a6a:	11 81       	ldd	r17, Z+1	; 0x01
    1a6c:	01 15       	cp	r16, r1
    1a6e:	11 05       	cpc	r17, r1
    1a70:	09 f4       	brne	.+2      	; 0x1a74 <parse_value+0x22>
    1a72:	c5 c0       	rjmp	.+394    	; 0x1bfe <parse_value+0x1ac>
    1a74:	eb 01       	movw	r28, r22
    1a76:	7c 01       	movw	r14, r24
    1a78:	30 97       	sbiw	r30, 0x00	; 0
    1a7a:	09 f1       	breq	.+66     	; 0x1abe <parse_value+0x6c>
    1a7c:	84 81       	ldd	r24, Z+4	; 0x04
    1a7e:	95 81       	ldd	r25, Z+5	; 0x05
    1a80:	ac 01       	movw	r20, r24
    1a82:	4c 5f       	subi	r20, 0xFC	; 252
    1a84:	5f 4f       	sbci	r21, 0xFF	; 255
    1a86:	22 81       	ldd	r18, Z+2	; 0x02
    1a88:	33 81       	ldd	r19, Z+3	; 0x03
    1a8a:	24 17       	cp	r18, r20
    1a8c:	35 07       	cpc	r19, r21
    1a8e:	b8 f0       	brcs	.+46     	; 0x1abe <parse_value+0x6c>
    1a90:	44 e0       	ldi	r20, 0x04	; 4
    1a92:	50 e0       	ldi	r21, 0x00	; 0
    1a94:	66 e1       	ldi	r22, 0x16	; 22
    1a96:	71 e0       	ldi	r23, 0x01	; 1
    1a98:	80 0f       	add	r24, r16
    1a9a:	91 1f       	adc	r25, r17
    1a9c:	0e 94 d8 18 	call	0x31b0	; 0x31b0 <strncmp>
    1aa0:	89 2b       	or	r24, r25
    1aa2:	69 f4       	brne	.+26     	; 0x1abe <parse_value+0x6c>
    1aa4:	84 e0       	ldi	r24, 0x04	; 4
    1aa6:	90 e0       	ldi	r25, 0x00	; 0
    1aa8:	f7 01       	movw	r30, r14
    1aaa:	97 83       	std	Z+7, r25	; 0x07
    1aac:	86 83       	std	Z+6, r24	; 0x06
    1aae:	8c 81       	ldd	r24, Y+4	; 0x04
    1ab0:	9d 81       	ldd	r25, Y+5	; 0x05
    1ab2:	04 96       	adiw	r24, 0x04	; 4
    1ab4:	9d 83       	std	Y+5, r25	; 0x05
    1ab6:	8c 83       	std	Y+4, r24	; 0x04
    1ab8:	81 e0       	ldi	r24, 0x01	; 1
    1aba:	90 e0       	ldi	r25, 0x00	; 0
    1abc:	ab c0       	rjmp	.+342    	; 0x1c14 <parse_value+0x1c2>
    1abe:	20 97       	sbiw	r28, 0x00	; 0
    1ac0:	09 f1       	breq	.+66     	; 0x1b04 <parse_value+0xb2>
    1ac2:	8c 81       	ldd	r24, Y+4	; 0x04
    1ac4:	9d 81       	ldd	r25, Y+5	; 0x05
    1ac6:	ac 01       	movw	r20, r24
    1ac8:	4b 5f       	subi	r20, 0xFB	; 251
    1aca:	5f 4f       	sbci	r21, 0xFF	; 255
    1acc:	2a 81       	ldd	r18, Y+2	; 0x02
    1ace:	3b 81       	ldd	r19, Y+3	; 0x03
    1ad0:	24 17       	cp	r18, r20
    1ad2:	35 07       	cpc	r19, r21
    1ad4:	b8 f0       	brcs	.+46     	; 0x1b04 <parse_value+0xb2>
    1ad6:	45 e0       	ldi	r20, 0x05	; 5
    1ad8:	50 e0       	ldi	r21, 0x00	; 0
    1ada:	60 e3       	ldi	r22, 0x30	; 48
    1adc:	71 e0       	ldi	r23, 0x01	; 1
    1ade:	80 0f       	add	r24, r16
    1ae0:	91 1f       	adc	r25, r17
    1ae2:	0e 94 d8 18 	call	0x31b0	; 0x31b0 <strncmp>
    1ae6:	89 2b       	or	r24, r25
    1ae8:	69 f4       	brne	.+26     	; 0x1b04 <parse_value+0xb2>
    1aea:	81 e0       	ldi	r24, 0x01	; 1
    1aec:	90 e0       	ldi	r25, 0x00	; 0
    1aee:	f7 01       	movw	r30, r14
    1af0:	97 83       	std	Z+7, r25	; 0x07
    1af2:	86 83       	std	Z+6, r24	; 0x06
    1af4:	8c 81       	ldd	r24, Y+4	; 0x04
    1af6:	9d 81       	ldd	r25, Y+5	; 0x05
    1af8:	05 96       	adiw	r24, 0x05	; 5
    1afa:	9d 83       	std	Y+5, r25	; 0x05
    1afc:	8c 83       	std	Y+4, r24	; 0x04
    1afe:	81 e0       	ldi	r24, 0x01	; 1
    1b00:	90 e0       	ldi	r25, 0x00	; 0
    1b02:	88 c0       	rjmp	.+272    	; 0x1c14 <parse_value+0x1c2>
    1b04:	20 97       	sbiw	r28, 0x00	; 0
    1b06:	29 f1       	breq	.+74     	; 0x1b52 <parse_value+0x100>
    1b08:	8c 81       	ldd	r24, Y+4	; 0x04
    1b0a:	9d 81       	ldd	r25, Y+5	; 0x05
    1b0c:	ac 01       	movw	r20, r24
    1b0e:	4c 5f       	subi	r20, 0xFC	; 252
    1b10:	5f 4f       	sbci	r21, 0xFF	; 255
    1b12:	2a 81       	ldd	r18, Y+2	; 0x02
    1b14:	3b 81       	ldd	r19, Y+3	; 0x03
    1b16:	24 17       	cp	r18, r20
    1b18:	35 07       	cpc	r19, r21
    1b1a:	d8 f0       	brcs	.+54     	; 0x1b52 <parse_value+0x100>
    1b1c:	44 e0       	ldi	r20, 0x04	; 4
    1b1e:	50 e0       	ldi	r21, 0x00	; 0
    1b20:	66 e3       	ldi	r22, 0x36	; 54
    1b22:	71 e0       	ldi	r23, 0x01	; 1
    1b24:	80 0f       	add	r24, r16
    1b26:	91 1f       	adc	r25, r17
    1b28:	0e 94 d8 18 	call	0x31b0	; 0x31b0 <strncmp>
    1b2c:	89 2b       	or	r24, r25
    1b2e:	89 f4       	brne	.+34     	; 0x1b52 <parse_value+0x100>
    1b30:	82 e0       	ldi	r24, 0x02	; 2
    1b32:	90 e0       	ldi	r25, 0x00	; 0
    1b34:	f7 01       	movw	r30, r14
    1b36:	97 83       	std	Z+7, r25	; 0x07
    1b38:	86 83       	std	Z+6, r24	; 0x06
    1b3a:	81 e0       	ldi	r24, 0x01	; 1
    1b3c:	90 e0       	ldi	r25, 0x00	; 0
    1b3e:	93 87       	std	Z+11, r25	; 0x0b
    1b40:	82 87       	std	Z+10, r24	; 0x0a
    1b42:	8c 81       	ldd	r24, Y+4	; 0x04
    1b44:	9d 81       	ldd	r25, Y+5	; 0x05
    1b46:	04 96       	adiw	r24, 0x04	; 4
    1b48:	9d 83       	std	Y+5, r25	; 0x05
    1b4a:	8c 83       	std	Y+4, r24	; 0x04
    1b4c:	81 e0       	ldi	r24, 0x01	; 1
    1b4e:	90 e0       	ldi	r25, 0x00	; 0
    1b50:	61 c0       	rjmp	.+194    	; 0x1c14 <parse_value+0x1c2>
    1b52:	20 97       	sbiw	r28, 0x00	; 0
    1b54:	91 f0       	breq	.+36     	; 0x1b7a <parse_value+0x128>
    1b56:	8c 81       	ldd	r24, Y+4	; 0x04
    1b58:	9d 81       	ldd	r25, Y+5	; 0x05
    1b5a:	2a 81       	ldd	r18, Y+2	; 0x02
    1b5c:	3b 81       	ldd	r19, Y+3	; 0x03
    1b5e:	82 17       	cp	r24, r18
    1b60:	93 07       	cpc	r25, r19
    1b62:	58 f4       	brcc	.+22     	; 0x1b7a <parse_value+0x128>
    1b64:	f8 01       	movw	r30, r16
    1b66:	e8 0f       	add	r30, r24
    1b68:	f9 1f       	adc	r31, r25
    1b6a:	80 81       	ld	r24, Z
    1b6c:	82 32       	cpi	r24, 0x22	; 34
    1b6e:	29 f4       	brne	.+10     	; 0x1b7a <parse_value+0x128>
    1b70:	be 01       	movw	r22, r28
    1b72:	c7 01       	movw	r24, r14
    1b74:	0e 94 4d 02 	call	0x49a	; 0x49a <parse_string>
    1b78:	4d c0       	rjmp	.+154    	; 0x1c14 <parse_value+0x1c2>
    1b7a:	20 97       	sbiw	r28, 0x00	; 0
    1b7c:	a9 f0       	breq	.+42     	; 0x1ba8 <parse_value+0x156>
    1b7e:	8c 81       	ldd	r24, Y+4	; 0x04
    1b80:	9d 81       	ldd	r25, Y+5	; 0x05
    1b82:	2a 81       	ldd	r18, Y+2	; 0x02
    1b84:	3b 81       	ldd	r19, Y+3	; 0x03
    1b86:	82 17       	cp	r24, r18
    1b88:	93 07       	cpc	r25, r19
    1b8a:	70 f4       	brcc	.+28     	; 0x1ba8 <parse_value+0x156>
    1b8c:	f8 01       	movw	r30, r16
    1b8e:	e8 0f       	add	r30, r24
    1b90:	f9 1f       	adc	r31, r25
    1b92:	80 81       	ld	r24, Z
    1b94:	8d 32       	cpi	r24, 0x2D	; 45
    1b96:	19 f0       	breq	.+6      	; 0x1b9e <parse_value+0x14c>
    1b98:	80 53       	subi	r24, 0x30	; 48
    1b9a:	8a 30       	cpi	r24, 0x0A	; 10
    1b9c:	28 f4       	brcc	.+10     	; 0x1ba8 <parse_value+0x156>
    1b9e:	be 01       	movw	r22, r28
    1ba0:	c7 01       	movw	r24, r14
    1ba2:	0e 94 8b 05 	call	0xb16	; 0xb16 <parse_number>
    1ba6:	36 c0       	rjmp	.+108    	; 0x1c14 <parse_value+0x1c2>
    1ba8:	20 97       	sbiw	r28, 0x00	; 0
    1baa:	91 f0       	breq	.+36     	; 0x1bd0 <parse_value+0x17e>
    1bac:	8c 81       	ldd	r24, Y+4	; 0x04
    1bae:	9d 81       	ldd	r25, Y+5	; 0x05
    1bb0:	2a 81       	ldd	r18, Y+2	; 0x02
    1bb2:	3b 81       	ldd	r19, Y+3	; 0x03
    1bb4:	82 17       	cp	r24, r18
    1bb6:	93 07       	cpc	r25, r19
    1bb8:	58 f4       	brcc	.+22     	; 0x1bd0 <parse_value+0x17e>
    1bba:	f8 01       	movw	r30, r16
    1bbc:	e8 0f       	add	r30, r24
    1bbe:	f9 1f       	adc	r31, r25
    1bc0:	80 81       	ld	r24, Z
    1bc2:	8b 35       	cpi	r24, 0x5B	; 91
    1bc4:	29 f4       	brne	.+10     	; 0x1bd0 <parse_value+0x17e>
    1bc6:	be 01       	movw	r22, r28
    1bc8:	c7 01       	movw	r24, r14
    1bca:	0e 94 55 0c 	call	0x18aa	; 0x18aa <parse_array>
    1bce:	22 c0       	rjmp	.+68     	; 0x1c14 <parse_value+0x1c2>
    1bd0:	20 97       	sbiw	r28, 0x00	; 0
    1bd2:	c1 f0       	breq	.+48     	; 0x1c04 <parse_value+0x1b2>
    1bd4:	8c 81       	ldd	r24, Y+4	; 0x04
    1bd6:	9d 81       	ldd	r25, Y+5	; 0x05
    1bd8:	2a 81       	ldd	r18, Y+2	; 0x02
    1bda:	3b 81       	ldd	r19, Y+3	; 0x03
    1bdc:	82 17       	cp	r24, r18
    1bde:	93 07       	cpc	r25, r19
    1be0:	a0 f4       	brcc	.+40     	; 0x1c0a <parse_value+0x1b8>
    1be2:	f8 01       	movw	r30, r16
    1be4:	e8 0f       	add	r30, r24
    1be6:	f9 1f       	adc	r31, r25
    1be8:	80 81       	ld	r24, Z
    1bea:	8b 37       	cpi	r24, 0x7B	; 123
    1bec:	89 f4       	brne	.+34     	; 0x1c10 <parse_value+0x1be>
    1bee:	be 01       	movw	r22, r28
    1bf0:	c7 01       	movw	r24, r14
    1bf2:	0e 94 11 0e 	call	0x1c22	; 0x1c22 <parse_object>
    1bf6:	0e c0       	rjmp	.+28     	; 0x1c14 <parse_value+0x1c2>
    1bf8:	80 e0       	ldi	r24, 0x00	; 0
    1bfa:	90 e0       	ldi	r25, 0x00	; 0
    1bfc:	0b c0       	rjmp	.+22     	; 0x1c14 <parse_value+0x1c2>
    1bfe:	80 e0       	ldi	r24, 0x00	; 0
    1c00:	90 e0       	ldi	r25, 0x00	; 0
    1c02:	08 c0       	rjmp	.+16     	; 0x1c14 <parse_value+0x1c2>
    1c04:	80 e0       	ldi	r24, 0x00	; 0
    1c06:	90 e0       	ldi	r25, 0x00	; 0
    1c08:	05 c0       	rjmp	.+10     	; 0x1c14 <parse_value+0x1c2>
    1c0a:	80 e0       	ldi	r24, 0x00	; 0
    1c0c:	90 e0       	ldi	r25, 0x00	; 0
    1c0e:	02 c0       	rjmp	.+4      	; 0x1c14 <parse_value+0x1c2>
    1c10:	80 e0       	ldi	r24, 0x00	; 0
    1c12:	90 e0       	ldi	r25, 0x00	; 0
    1c14:	df 91       	pop	r29
    1c16:	cf 91       	pop	r28
    1c18:	1f 91       	pop	r17
    1c1a:	0f 91       	pop	r16
    1c1c:	ff 90       	pop	r15
    1c1e:	ef 90       	pop	r14
    1c20:	08 95       	ret

00001c22 <parse_object>:
    1c22:	af 92       	push	r10
    1c24:	bf 92       	push	r11
    1c26:	cf 92       	push	r12
    1c28:	df 92       	push	r13
    1c2a:	ef 92       	push	r14
    1c2c:	ff 92       	push	r15
    1c2e:	0f 93       	push	r16
    1c30:	1f 93       	push	r17
    1c32:	cf 93       	push	r28
    1c34:	df 93       	push	r29
    1c36:	fb 01       	movw	r30, r22
    1c38:	26 81       	ldd	r18, Z+6	; 0x06
    1c3a:	37 81       	ldd	r19, Z+7	; 0x07
    1c3c:	28 3e       	cpi	r18, 0xE8	; 232
    1c3e:	f3 e0       	ldi	r31, 0x03	; 3
    1c40:	3f 07       	cpc	r19, r31
    1c42:	08 f0       	brcs	.+2      	; 0x1c46 <parse_object+0x24>
    1c44:	f5 c0       	rjmp	.+490    	; 0x1e30 <parse_object+0x20e>
    1c46:	eb 01       	movw	r28, r22
    1c48:	7c 01       	movw	r14, r24
    1c4a:	2f 5f       	subi	r18, 0xFF	; 255
    1c4c:	3f 4f       	sbci	r19, 0xFF	; 255
    1c4e:	3f 83       	std	Y+7, r19	; 0x07
    1c50:	2e 83       	std	Y+6, r18	; 0x06
    1c52:	20 97       	sbiw	r28, 0x00	; 0
    1c54:	09 f4       	brne	.+2      	; 0x1c58 <parse_object+0x36>
    1c56:	db c0       	rjmp	.+438    	; 0x1e0e <parse_object+0x1ec>
    1c58:	8c 81       	ldd	r24, Y+4	; 0x04
    1c5a:	9d 81       	ldd	r25, Y+5	; 0x05
    1c5c:	2a 81       	ldd	r18, Y+2	; 0x02
    1c5e:	3b 81       	ldd	r19, Y+3	; 0x03
    1c60:	82 17       	cp	r24, r18
    1c62:	93 07       	cpc	r25, r19
    1c64:	08 f0       	brcs	.+2      	; 0x1c68 <parse_object+0x46>
    1c66:	d6 c0       	rjmp	.+428    	; 0x1e14 <parse_object+0x1f2>
    1c68:	e8 81       	ld	r30, Y
    1c6a:	f9 81       	ldd	r31, Y+1	; 0x01
    1c6c:	e8 0f       	add	r30, r24
    1c6e:	f9 1f       	adc	r31, r25
    1c70:	20 81       	ld	r18, Z
    1c72:	2b 37       	cpi	r18, 0x7B	; 123
    1c74:	09 f0       	breq	.+2      	; 0x1c78 <parse_object+0x56>
    1c76:	d1 c0       	rjmp	.+418    	; 0x1e1a <parse_object+0x1f8>
    1c78:	01 96       	adiw	r24, 0x01	; 1
    1c7a:	9d 83       	std	Y+5, r25	; 0x05
    1c7c:	8c 83       	std	Y+4, r24	; 0x04
    1c7e:	cb 01       	movw	r24, r22
    1c80:	0e 94 79 03 	call	0x6f2	; 0x6f2 <buffer_skip_whitespace>
    1c84:	20 97       	sbiw	r28, 0x00	; 0
    1c86:	81 f0       	breq	.+32     	; 0x1ca8 <parse_object+0x86>
    1c88:	8c 81       	ldd	r24, Y+4	; 0x04
    1c8a:	9d 81       	ldd	r25, Y+5	; 0x05
    1c8c:	2a 81       	ldd	r18, Y+2	; 0x02
    1c8e:	3b 81       	ldd	r19, Y+3	; 0x03
    1c90:	82 17       	cp	r24, r18
    1c92:	93 07       	cpc	r25, r19
    1c94:	48 f4       	brcc	.+18     	; 0x1ca8 <parse_object+0x86>
    1c96:	28 81       	ld	r18, Y
    1c98:	39 81       	ldd	r19, Y+1	; 0x01
    1c9a:	f9 01       	movw	r30, r18
    1c9c:	e8 0f       	add	r30, r24
    1c9e:	f9 1f       	adc	r31, r25
    1ca0:	80 81       	ld	r24, Z
    1ca2:	8d 37       	cpi	r24, 0x7D	; 125
    1ca4:	09 f4       	brne	.+2      	; 0x1ca8 <parse_object+0x86>
    1ca6:	95 c0       	rjmp	.+298    	; 0x1dd2 <parse_object+0x1b0>
    1ca8:	20 97       	sbiw	r28, 0x00	; 0
    1caa:	39 f0       	breq	.+14     	; 0x1cba <parse_object+0x98>
    1cac:	8c 81       	ldd	r24, Y+4	; 0x04
    1cae:	9d 81       	ldd	r25, Y+5	; 0x05
    1cb0:	2a 81       	ldd	r18, Y+2	; 0x02
    1cb2:	3b 81       	ldd	r19, Y+3	; 0x03
    1cb4:	82 17       	cp	r24, r18
    1cb6:	93 07       	cpc	r25, r19
    1cb8:	40 f0       	brcs	.+16     	; 0x1cca <parse_object+0xa8>
    1cba:	8c 81       	ldd	r24, Y+4	; 0x04
    1cbc:	9d 81       	ldd	r25, Y+5	; 0x05
    1cbe:	01 97       	sbiw	r24, 0x01	; 1
    1cc0:	9d 83       	std	Y+5, r25	; 0x05
    1cc2:	8c 83       	std	Y+4, r24	; 0x04
    1cc4:	00 e0       	ldi	r16, 0x00	; 0
    1cc6:	10 e0       	ldi	r17, 0x00	; 0
    1cc8:	aa c0       	rjmp	.+340    	; 0x1e1e <parse_object+0x1fc>
    1cca:	01 97       	sbiw	r24, 0x01	; 1
    1ccc:	9d 83       	std	Y+5, r25	; 0x05
    1cce:	8c 83       	std	Y+4, r24	; 0x04
    1cd0:	a1 2c       	mov	r10, r1
    1cd2:	b1 2c       	mov	r11, r1
    1cd4:	00 e0       	ldi	r16, 0x00	; 0
    1cd6:	10 e0       	ldi	r17, 0x00	; 0
    1cd8:	ce 01       	movw	r24, r28
    1cda:	08 96       	adiw	r24, 0x08	; 8
    1cdc:	0e 94 3b 05 	call	0xa76	; 0xa76 <cJSON_New_Item>
    1ce0:	6c 01       	movw	r12, r24
    1ce2:	00 97       	sbiw	r24, 0x00	; 0
    1ce4:	09 f4       	brne	.+2      	; 0x1ce8 <parse_object+0xc6>
    1ce6:	9b c0       	rjmp	.+310    	; 0x1e1e <parse_object+0x1fc>
    1ce8:	01 15       	cp	r16, r1
    1cea:	11 05       	cpc	r17, r1
    1cec:	39 f0       	breq	.+14     	; 0x1cfc <parse_object+0xda>
    1cee:	f5 01       	movw	r30, r10
    1cf0:	91 83       	std	Z+1, r25	; 0x01
    1cf2:	80 83       	st	Z, r24
    1cf4:	fc 01       	movw	r30, r24
    1cf6:	b3 82       	std	Z+3, r11	; 0x03
    1cf8:	a2 82       	std	Z+2, r10	; 0x02
    1cfa:	01 c0       	rjmp	.+2      	; 0x1cfe <parse_object+0xdc>
    1cfc:	8c 01       	movw	r16, r24
    1cfe:	20 97       	sbiw	r28, 0x00	; 0
    1d00:	09 f4       	brne	.+2      	; 0x1d04 <parse_object+0xe2>
    1d02:	8d c0       	rjmp	.+282    	; 0x1e1e <parse_object+0x1fc>
    1d04:	8c 81       	ldd	r24, Y+4	; 0x04
    1d06:	9d 81       	ldd	r25, Y+5	; 0x05
    1d08:	01 96       	adiw	r24, 0x01	; 1
    1d0a:	2a 81       	ldd	r18, Y+2	; 0x02
    1d0c:	3b 81       	ldd	r19, Y+3	; 0x03
    1d0e:	82 17       	cp	r24, r18
    1d10:	93 07       	cpc	r25, r19
    1d12:	08 f0       	brcs	.+2      	; 0x1d16 <parse_object+0xf4>
    1d14:	84 c0       	rjmp	.+264    	; 0x1e1e <parse_object+0x1fc>
    1d16:	9d 83       	std	Y+5, r25	; 0x05
    1d18:	8c 83       	std	Y+4, r24	; 0x04
    1d1a:	ce 01       	movw	r24, r28
    1d1c:	0e 94 79 03 	call	0x6f2	; 0x6f2 <buffer_skip_whitespace>
    1d20:	be 01       	movw	r22, r28
    1d22:	c6 01       	movw	r24, r12
    1d24:	0e 94 4d 02 	call	0x49a	; 0x49a <parse_string>
    1d28:	89 2b       	or	r24, r25
    1d2a:	09 f4       	brne	.+2      	; 0x1d2e <parse_object+0x10c>
    1d2c:	78 c0       	rjmp	.+240    	; 0x1e1e <parse_object+0x1fc>
    1d2e:	ce 01       	movw	r24, r28
    1d30:	0e 94 79 03 	call	0x6f2	; 0x6f2 <buffer_skip_whitespace>
    1d34:	f6 01       	movw	r30, r12
    1d36:	80 85       	ldd	r24, Z+8	; 0x08
    1d38:	91 85       	ldd	r25, Z+9	; 0x09
    1d3a:	91 8b       	std	Z+17, r25	; 0x11
    1d3c:	80 8b       	std	Z+16, r24	; 0x10
    1d3e:	11 86       	std	Z+9, r1	; 0x09
    1d40:	10 86       	std	Z+8, r1	; 0x08
    1d42:	20 97       	sbiw	r28, 0x00	; 0
    1d44:	09 f4       	brne	.+2      	; 0x1d48 <parse_object+0x126>
    1d46:	6b c0       	rjmp	.+214    	; 0x1e1e <parse_object+0x1fc>
    1d48:	8c 81       	ldd	r24, Y+4	; 0x04
    1d4a:	9d 81       	ldd	r25, Y+5	; 0x05
    1d4c:	2a 81       	ldd	r18, Y+2	; 0x02
    1d4e:	3b 81       	ldd	r19, Y+3	; 0x03
    1d50:	82 17       	cp	r24, r18
    1d52:	93 07       	cpc	r25, r19
    1d54:	08 f0       	brcs	.+2      	; 0x1d58 <parse_object+0x136>
    1d56:	63 c0       	rjmp	.+198    	; 0x1e1e <parse_object+0x1fc>
    1d58:	e8 81       	ld	r30, Y
    1d5a:	f9 81       	ldd	r31, Y+1	; 0x01
    1d5c:	e8 0f       	add	r30, r24
    1d5e:	f9 1f       	adc	r31, r25
    1d60:	20 81       	ld	r18, Z
    1d62:	2a 33       	cpi	r18, 0x3A	; 58
    1d64:	09 f0       	breq	.+2      	; 0x1d68 <parse_object+0x146>
    1d66:	5b c0       	rjmp	.+182    	; 0x1e1e <parse_object+0x1fc>
    1d68:	01 96       	adiw	r24, 0x01	; 1
    1d6a:	9d 83       	std	Y+5, r25	; 0x05
    1d6c:	8c 83       	std	Y+4, r24	; 0x04
    1d6e:	ce 01       	movw	r24, r28
    1d70:	0e 94 79 03 	call	0x6f2	; 0x6f2 <buffer_skip_whitespace>
    1d74:	be 01       	movw	r22, r28
    1d76:	c6 01       	movw	r24, r12
    1d78:	0e 94 29 0d 	call	0x1a52	; 0x1a52 <parse_value>
    1d7c:	89 2b       	or	r24, r25
    1d7e:	09 f4       	brne	.+2      	; 0x1d82 <parse_object+0x160>
    1d80:	4e c0       	rjmp	.+156    	; 0x1e1e <parse_object+0x1fc>
    1d82:	ce 01       	movw	r24, r28
    1d84:	0e 94 79 03 	call	0x6f2	; 0x6f2 <buffer_skip_whitespace>
    1d88:	20 97       	sbiw	r28, 0x00	; 0
    1d8a:	89 f0       	breq	.+34     	; 0x1dae <parse_object+0x18c>
    1d8c:	8c 81       	ldd	r24, Y+4	; 0x04
    1d8e:	9d 81       	ldd	r25, Y+5	; 0x05
    1d90:	2a 81       	ldd	r18, Y+2	; 0x02
    1d92:	3b 81       	ldd	r19, Y+3	; 0x03
    1d94:	82 17       	cp	r24, r18
    1d96:	93 07       	cpc	r25, r19
    1d98:	50 f4       	brcc	.+20     	; 0x1dae <parse_object+0x18c>
    1d9a:	28 81       	ld	r18, Y
    1d9c:	39 81       	ldd	r19, Y+1	; 0x01
    1d9e:	f9 01       	movw	r30, r18
    1da0:	e8 0f       	add	r30, r24
    1da2:	f9 1f       	adc	r31, r25
    1da4:	80 81       	ld	r24, Z
    1da6:	56 01       	movw	r10, r12
    1da8:	8c 32       	cpi	r24, 0x2C	; 44
    1daa:	09 f4       	brne	.+2      	; 0x1dae <parse_object+0x18c>
    1dac:	95 cf       	rjmp	.-214    	; 0x1cd8 <parse_object+0xb6>
    1dae:	20 97       	sbiw	r28, 0x00	; 0
    1db0:	b1 f1       	breq	.+108    	; 0x1e1e <parse_object+0x1fc>
    1db2:	8c 81       	ldd	r24, Y+4	; 0x04
    1db4:	9d 81       	ldd	r25, Y+5	; 0x05
    1db6:	2a 81       	ldd	r18, Y+2	; 0x02
    1db8:	3b 81       	ldd	r19, Y+3	; 0x03
    1dba:	82 17       	cp	r24, r18
    1dbc:	93 07       	cpc	r25, r19
    1dbe:	78 f5       	brcc	.+94     	; 0x1e1e <parse_object+0x1fc>
    1dc0:	28 81       	ld	r18, Y
    1dc2:	39 81       	ldd	r19, Y+1	; 0x01
    1dc4:	f9 01       	movw	r30, r18
    1dc6:	e8 0f       	add	r30, r24
    1dc8:	f9 1f       	adc	r31, r25
    1dca:	80 81       	ld	r24, Z
    1dcc:	8d 37       	cpi	r24, 0x7D	; 125
    1dce:	39 f5       	brne	.+78     	; 0x1e1e <parse_object+0x1fc>
    1dd0:	04 c0       	rjmp	.+8      	; 0x1dda <parse_object+0x1b8>
    1dd2:	c1 2c       	mov	r12, r1
    1dd4:	d1 2c       	mov	r13, r1
    1dd6:	00 e0       	ldi	r16, 0x00	; 0
    1dd8:	10 e0       	ldi	r17, 0x00	; 0
    1dda:	8e 81       	ldd	r24, Y+6	; 0x06
    1ddc:	9f 81       	ldd	r25, Y+7	; 0x07
    1dde:	01 97       	sbiw	r24, 0x01	; 1
    1de0:	9f 83       	std	Y+7, r25	; 0x07
    1de2:	8e 83       	std	Y+6, r24	; 0x06
    1de4:	01 15       	cp	r16, r1
    1de6:	11 05       	cpc	r17, r1
    1de8:	19 f0       	breq	.+6      	; 0x1df0 <parse_object+0x1ce>
    1dea:	f8 01       	movw	r30, r16
    1dec:	d3 82       	std	Z+3, r13	; 0x03
    1dee:	c2 82       	std	Z+2, r12	; 0x02
    1df0:	80 e4       	ldi	r24, 0x40	; 64
    1df2:	90 e0       	ldi	r25, 0x00	; 0
    1df4:	f7 01       	movw	r30, r14
    1df6:	97 83       	std	Z+7, r25	; 0x07
    1df8:	86 83       	std	Z+6, r24	; 0x06
    1dfa:	15 83       	std	Z+5, r17	; 0x05
    1dfc:	04 83       	std	Z+4, r16	; 0x04
    1dfe:	8c 81       	ldd	r24, Y+4	; 0x04
    1e00:	9d 81       	ldd	r25, Y+5	; 0x05
    1e02:	01 96       	adiw	r24, 0x01	; 1
    1e04:	9d 83       	std	Y+5, r25	; 0x05
    1e06:	8c 83       	std	Y+4, r24	; 0x04
    1e08:	81 e0       	ldi	r24, 0x01	; 1
    1e0a:	90 e0       	ldi	r25, 0x00	; 0
    1e0c:	16 c0       	rjmp	.+44     	; 0x1e3a <parse_object+0x218>
    1e0e:	00 e0       	ldi	r16, 0x00	; 0
    1e10:	10 e0       	ldi	r17, 0x00	; 0
    1e12:	05 c0       	rjmp	.+10     	; 0x1e1e <parse_object+0x1fc>
    1e14:	00 e0       	ldi	r16, 0x00	; 0
    1e16:	10 e0       	ldi	r17, 0x00	; 0
    1e18:	02 c0       	rjmp	.+4      	; 0x1e1e <parse_object+0x1fc>
    1e1a:	00 e0       	ldi	r16, 0x00	; 0
    1e1c:	10 e0       	ldi	r17, 0x00	; 0
    1e1e:	01 15       	cp	r16, r1
    1e20:	11 05       	cpc	r17, r1
    1e22:	49 f0       	breq	.+18     	; 0x1e36 <parse_object+0x214>
    1e24:	c8 01       	movw	r24, r16
    1e26:	0e 94 16 0c 	call	0x182c	; 0x182c <cJSON_Delete>
    1e2a:	80 e0       	ldi	r24, 0x00	; 0
    1e2c:	90 e0       	ldi	r25, 0x00	; 0
    1e2e:	05 c0       	rjmp	.+10     	; 0x1e3a <parse_object+0x218>
    1e30:	80 e0       	ldi	r24, 0x00	; 0
    1e32:	90 e0       	ldi	r25, 0x00	; 0
    1e34:	02 c0       	rjmp	.+4      	; 0x1e3a <parse_object+0x218>
    1e36:	80 e0       	ldi	r24, 0x00	; 0
    1e38:	90 e0       	ldi	r25, 0x00	; 0
    1e3a:	df 91       	pop	r29
    1e3c:	cf 91       	pop	r28
    1e3e:	1f 91       	pop	r17
    1e40:	0f 91       	pop	r16
    1e42:	ff 90       	pop	r15
    1e44:	ef 90       	pop	r14
    1e46:	df 90       	pop	r13
    1e48:	cf 90       	pop	r12
    1e4a:	bf 90       	pop	r11
    1e4c:	af 90       	pop	r10
    1e4e:	08 95       	ret

00001e50 <cJSON_ParseWithLengthOpts>:
    1e50:	af 92       	push	r10
    1e52:	bf 92       	push	r11
    1e54:	cf 92       	push	r12
    1e56:	df 92       	push	r13
    1e58:	ef 92       	push	r14
    1e5a:	ff 92       	push	r15
    1e5c:	0f 93       	push	r16
    1e5e:	1f 93       	push	r17
    1e60:	cf 93       	push	r28
    1e62:	df 93       	push	r29
    1e64:	cd b7       	in	r28, 0x3d	; 61
    1e66:	de b7       	in	r29, 0x3e	; 62
    1e68:	2e 97       	sbiw	r28, 0x0e	; 14
    1e6a:	0f b6       	in	r0, 0x3f	; 63
    1e6c:	f8 94       	cli
    1e6e:	de bf       	out	0x3e, r29	; 62
    1e70:	0f be       	out	0x3f, r0	; 63
    1e72:	cd bf       	out	0x3d, r28	; 61
    1e74:	8c 01       	movw	r16, r24
    1e76:	7a 01       	movw	r14, r20
    1e78:	59 01       	movw	r10, r18
    1e7a:	fe 01       	movw	r30, r28
    1e7c:	31 96       	adiw	r30, 0x01	; 1
    1e7e:	8e e0       	ldi	r24, 0x0E	; 14
    1e80:	df 01       	movw	r26, r30
    1e82:	1d 92       	st	X+, r1
    1e84:	8a 95       	dec	r24
    1e86:	e9 f7       	brne	.-6      	; 0x1e82 <cJSON_ParseWithLengthOpts+0x32>
    1e88:	e4 ec       	ldi	r30, 0xC4	; 196
    1e8a:	f2 e0       	ldi	r31, 0x02	; 2
    1e8c:	11 82       	std	Z+1, r1	; 0x01
    1e8e:	10 82       	st	Z, r1
    1e90:	13 82       	std	Z+3, r1	; 0x03
    1e92:	12 82       	std	Z+2, r1	; 0x02
    1e94:	01 15       	cp	r16, r1
    1e96:	11 05       	cpc	r17, r1
    1e98:	09 f4       	brne	.+2      	; 0x1e9c <cJSON_ParseWithLengthOpts+0x4c>
    1e9a:	48 c0       	rjmp	.+144    	; 0x1f2c <cJSON_ParseWithLengthOpts+0xdc>
    1e9c:	61 15       	cp	r22, r1
    1e9e:	71 05       	cpc	r23, r1
    1ea0:	09 f4       	brne	.+2      	; 0x1ea4 <cJSON_ParseWithLengthOpts+0x54>
    1ea2:	47 c0       	rjmp	.+142    	; 0x1f32 <cJSON_ParseWithLengthOpts+0xe2>
    1ea4:	1a 83       	std	Y+2, r17	; 0x02
    1ea6:	09 83       	std	Y+1, r16	; 0x01
    1ea8:	7c 83       	std	Y+4, r23	; 0x04
    1eaa:	6b 83       	std	Y+3, r22	; 0x03
    1eac:	86 e0       	ldi	r24, 0x06	; 6
    1eae:	e6 e0       	ldi	r30, 0x06	; 6
    1eb0:	f1 e0       	ldi	r31, 0x01	; 1
    1eb2:	de 01       	movw	r26, r28
    1eb4:	19 96       	adiw	r26, 0x09	; 9
    1eb6:	01 90       	ld	r0, Z+
    1eb8:	0d 92       	st	X+, r0
    1eba:	8a 95       	dec	r24
    1ebc:	e1 f7       	brne	.-8      	; 0x1eb6 <cJSON_ParseWithLengthOpts+0x66>
    1ebe:	86 e0       	ldi	r24, 0x06	; 6
    1ec0:	91 e0       	ldi	r25, 0x01	; 1
    1ec2:	0e 94 3b 05 	call	0xa76	; 0xa76 <cJSON_New_Item>
    1ec6:	6c 01       	movw	r12, r24
    1ec8:	89 2b       	or	r24, r25
    1eca:	a9 f1       	breq	.+106    	; 0x1f36 <cJSON_ParseWithLengthOpts+0xe6>
    1ecc:	ce 01       	movw	r24, r28
    1ece:	01 96       	adiw	r24, 0x01	; 1
    1ed0:	0e 94 49 05 	call	0xa92	; 0xa92 <skip_utf8_bom>
    1ed4:	0e 94 79 03 	call	0x6f2	; 0x6f2 <buffer_skip_whitespace>
    1ed8:	bc 01       	movw	r22, r24
    1eda:	c6 01       	movw	r24, r12
    1edc:	0e 94 29 0d 	call	0x1a52	; 0x1a52 <parse_value>
    1ee0:	89 2b       	or	r24, r25
    1ee2:	49 f1       	breq	.+82     	; 0x1f36 <cJSON_ParseWithLengthOpts+0xe6>
    1ee4:	ab 28       	or	r10, r11
    1ee6:	99 f0       	breq	.+38     	; 0x1f0e <cJSON_ParseWithLengthOpts+0xbe>
    1ee8:	ce 01       	movw	r24, r28
    1eea:	01 96       	adiw	r24, 0x01	; 1
    1eec:	0e 94 79 03 	call	0x6f2	; 0x6f2 <buffer_skip_whitespace>
    1ef0:	8d 81       	ldd	r24, Y+5	; 0x05
    1ef2:	9e 81       	ldd	r25, Y+6	; 0x06
    1ef4:	2b 81       	ldd	r18, Y+3	; 0x03
    1ef6:	3c 81       	ldd	r19, Y+4	; 0x04
    1ef8:	82 17       	cp	r24, r18
    1efa:	93 07       	cpc	r25, r19
    1efc:	e0 f4       	brcc	.+56     	; 0x1f36 <cJSON_ParseWithLengthOpts+0xe6>
    1efe:	29 81       	ldd	r18, Y+1	; 0x01
    1f00:	3a 81       	ldd	r19, Y+2	; 0x02
    1f02:	f9 01       	movw	r30, r18
    1f04:	e8 0f       	add	r30, r24
    1f06:	f9 1f       	adc	r31, r25
    1f08:	80 81       	ld	r24, Z
    1f0a:	81 11       	cpse	r24, r1
    1f0c:	14 c0       	rjmp	.+40     	; 0x1f36 <cJSON_ParseWithLengthOpts+0xe6>
    1f0e:	e1 14       	cp	r14, r1
    1f10:	f1 04       	cpc	r15, r1
    1f12:	f1 f1       	breq	.+124    	; 0x1f90 <cJSON_ParseWithLengthOpts+0x140>
    1f14:	29 81       	ldd	r18, Y+1	; 0x01
    1f16:	3a 81       	ldd	r19, Y+2	; 0x02
    1f18:	8d 81       	ldd	r24, Y+5	; 0x05
    1f1a:	9e 81       	ldd	r25, Y+6	; 0x06
    1f1c:	82 0f       	add	r24, r18
    1f1e:	93 1f       	adc	r25, r19
    1f20:	f7 01       	movw	r30, r14
    1f22:	91 83       	std	Z+1, r25	; 0x01
    1f24:	80 83       	st	Z, r24
    1f26:	8c 2d       	mov	r24, r12
    1f28:	9d 2d       	mov	r25, r13
    1f2a:	37 c0       	rjmp	.+110    	; 0x1f9a <cJSON_ParseWithLengthOpts+0x14a>
    1f2c:	c1 2c       	mov	r12, r1
    1f2e:	d1 2c       	mov	r13, r1
    1f30:	02 c0       	rjmp	.+4      	; 0x1f36 <cJSON_ParseWithLengthOpts+0xe6>
    1f32:	c1 2c       	mov	r12, r1
    1f34:	d1 2c       	mov	r13, r1
    1f36:	c1 14       	cp	r12, r1
    1f38:	d1 04       	cpc	r13, r1
    1f3a:	19 f0       	breq	.+6      	; 0x1f42 <cJSON_ParseWithLengthOpts+0xf2>
    1f3c:	c6 01       	movw	r24, r12
    1f3e:	0e 94 16 0c 	call	0x182c	; 0x182c <cJSON_Delete>
    1f42:	01 15       	cp	r16, r1
    1f44:	11 05       	cpc	r17, r1
    1f46:	39 f1       	breq	.+78     	; 0x1f96 <cJSON_ParseWithLengthOpts+0x146>
    1f48:	c8 01       	movw	r24, r16
    1f4a:	a0 e0       	ldi	r26, 0x00	; 0
    1f4c:	b0 e0       	ldi	r27, 0x00	; 0
    1f4e:	4d 81       	ldd	r20, Y+5	; 0x05
    1f50:	5e 81       	ldd	r21, Y+6	; 0x06
    1f52:	2b 81       	ldd	r18, Y+3	; 0x03
    1f54:	3c 81       	ldd	r19, Y+4	; 0x04
    1f56:	42 17       	cp	r20, r18
    1f58:	53 07       	cpc	r21, r19
    1f5a:	10 f4       	brcc	.+4      	; 0x1f60 <cJSON_ParseWithLengthOpts+0x110>
    1f5c:	da 01       	movw	r26, r20
    1f5e:	05 c0       	rjmp	.+10     	; 0x1f6a <cJSON_ParseWithLengthOpts+0x11a>
    1f60:	21 15       	cp	r18, r1
    1f62:	31 05       	cpc	r19, r1
    1f64:	11 f0       	breq	.+4      	; 0x1f6a <cJSON_ParseWithLengthOpts+0x11a>
    1f66:	d9 01       	movw	r26, r18
    1f68:	11 97       	sbiw	r26, 0x01	; 1
    1f6a:	e1 14       	cp	r14, r1
    1f6c:	f1 04       	cpc	r15, r1
    1f6e:	29 f0       	breq	.+10     	; 0x1f7a <cJSON_ParseWithLengthOpts+0x12a>
    1f70:	0a 0f       	add	r16, r26
    1f72:	1b 1f       	adc	r17, r27
    1f74:	f7 01       	movw	r30, r14
    1f76:	11 83       	std	Z+1, r17	; 0x01
    1f78:	00 83       	st	Z, r16
    1f7a:	80 93 c4 02 	sts	0x02C4, r24	; 0x8002c4 <__data_end>
    1f7e:	90 93 c5 02 	sts	0x02C5, r25	; 0x8002c5 <__data_end+0x1>
    1f82:	a0 93 c6 02 	sts	0x02C6, r26	; 0x8002c6 <__data_end+0x2>
    1f86:	b0 93 c7 02 	sts	0x02C7, r27	; 0x8002c7 <__data_end+0x3>
    1f8a:	80 e0       	ldi	r24, 0x00	; 0
    1f8c:	90 e0       	ldi	r25, 0x00	; 0
    1f8e:	05 c0       	rjmp	.+10     	; 0x1f9a <cJSON_ParseWithLengthOpts+0x14a>
    1f90:	8c 2d       	mov	r24, r12
    1f92:	9d 2d       	mov	r25, r13
    1f94:	02 c0       	rjmp	.+4      	; 0x1f9a <cJSON_ParseWithLengthOpts+0x14a>
    1f96:	80 e0       	ldi	r24, 0x00	; 0
    1f98:	90 e0       	ldi	r25, 0x00	; 0
    1f9a:	2e 96       	adiw	r28, 0x0e	; 14
    1f9c:	0f b6       	in	r0, 0x3f	; 63
    1f9e:	f8 94       	cli
    1fa0:	de bf       	out	0x3e, r29	; 62
    1fa2:	0f be       	out	0x3f, r0	; 63
    1fa4:	cd bf       	out	0x3d, r28	; 61
    1fa6:	df 91       	pop	r29
    1fa8:	cf 91       	pop	r28
    1faa:	1f 91       	pop	r17
    1fac:	0f 91       	pop	r16
    1fae:	ff 90       	pop	r15
    1fb0:	ef 90       	pop	r14
    1fb2:	df 90       	pop	r13
    1fb4:	cf 90       	pop	r12
    1fb6:	bf 90       	pop	r11
    1fb8:	af 90       	pop	r10
    1fba:	08 95       	ret

00001fbc <cJSON_ParseWithOpts>:
    1fbc:	00 97       	sbiw	r24, 0x00	; 0
    1fbe:	79 f0       	breq	.+30     	; 0x1fde <cJSON_ParseWithOpts+0x22>
    1fc0:	9a 01       	movw	r18, r20
    1fc2:	ab 01       	movw	r20, r22
    1fc4:	fc 01       	movw	r30, r24
    1fc6:	01 90       	ld	r0, Z+
    1fc8:	00 20       	and	r0, r0
    1fca:	e9 f7       	brne	.-6      	; 0x1fc6 <cJSON_ParseWithOpts+0xa>
    1fcc:	31 97       	sbiw	r30, 0x01	; 1
    1fce:	e8 1b       	sub	r30, r24
    1fd0:	f9 0b       	sbc	r31, r25
    1fd2:	bf 01       	movw	r22, r30
    1fd4:	6f 5f       	subi	r22, 0xFF	; 255
    1fd6:	7f 4f       	sbci	r23, 0xFF	; 255
    1fd8:	0e 94 28 0f 	call	0x1e50	; 0x1e50 <cJSON_ParseWithLengthOpts>
    1fdc:	08 95       	ret
    1fde:	80 e0       	ldi	r24, 0x00	; 0
    1fe0:	90 e0       	ldi	r25, 0x00	; 0
    1fe2:	08 95       	ret

00001fe4 <cJSON_Parse>:
    1fe4:	40 e0       	ldi	r20, 0x00	; 0
    1fe6:	50 e0       	ldi	r21, 0x00	; 0
    1fe8:	60 e0       	ldi	r22, 0x00	; 0
    1fea:	70 e0       	ldi	r23, 0x00	; 0
    1fec:	0e 94 de 0f 	call	0x1fbc	; 0x1fbc <cJSON_ParseWithOpts>
    1ff0:	08 95       	ret

00001ff2 <cJSON_PrintUnformatted>:
    1ff2:	46 e0       	ldi	r20, 0x06	; 6
    1ff4:	51 e0       	ldi	r21, 0x01	; 1
    1ff6:	60 e0       	ldi	r22, 0x00	; 0
    1ff8:	70 e0       	ldi	r23, 0x00	; 0
    1ffa:	0e 94 44 09 	call	0x1288	; 0x1288 <print>
    1ffe:	08 95       	ret

00002000 <cJSON_GetObjectItem>:
    2000:	40 e0       	ldi	r20, 0x00	; 0
    2002:	50 e0       	ldi	r21, 0x00	; 0
    2004:	0e 94 d1 0b 	call	0x17a2	; 0x17a2 <get_object_item>
    2008:	08 95       	ret

0000200a <cJSON_CreateNumber>:
    200a:	cf 92       	push	r12
    200c:	df 92       	push	r13
    200e:	ef 92       	push	r14
    2010:	ff 92       	push	r15
    2012:	cf 93       	push	r28
    2014:	df 93       	push	r29
    2016:	6b 01       	movw	r12, r22
    2018:	7c 01       	movw	r14, r24
    201a:	86 e0       	ldi	r24, 0x06	; 6
    201c:	91 e0       	ldi	r25, 0x01	; 1
    201e:	0e 94 3b 05 	call	0xa76	; 0xa76 <cJSON_New_Item>
    2022:	ec 01       	movw	r28, r24
    2024:	89 2b       	or	r24, r25
    2026:	61 f1       	breq	.+88     	; 0x2080 <cJSON_CreateNumber+0x76>
    2028:	88 e0       	ldi	r24, 0x08	; 8
    202a:	90 e0       	ldi	r25, 0x00	; 0
    202c:	9f 83       	std	Y+7, r25	; 0x07
    202e:	8e 83       	std	Y+6, r24	; 0x06
    2030:	cc 86       	std	Y+12, r12	; 0x0c
    2032:	dd 86       	std	Y+13, r13	; 0x0d
    2034:	ee 86       	std	Y+14, r14	; 0x0e
    2036:	ff 86       	std	Y+15, r15	; 0x0f
    2038:	20 e0       	ldi	r18, 0x00	; 0
    203a:	3e ef       	ldi	r19, 0xFE	; 254
    203c:	4f ef       	ldi	r20, 0xFF	; 255
    203e:	56 e4       	ldi	r21, 0x46	; 70
    2040:	c7 01       	movw	r24, r14
    2042:	b6 01       	movw	r22, r12
    2044:	0e 94 ce 14 	call	0x299c	; 0x299c <__gesf2>
    2048:	88 23       	and	r24, r24
    204a:	2c f0       	brlt	.+10     	; 0x2056 <cJSON_CreateNumber+0x4c>
    204c:	8f ef       	ldi	r24, 0xFF	; 255
    204e:	9f e7       	ldi	r25, 0x7F	; 127
    2050:	9b 87       	std	Y+11, r25	; 0x0b
    2052:	8a 87       	std	Y+10, r24	; 0x0a
    2054:	15 c0       	rjmp	.+42     	; 0x2080 <cJSON_CreateNumber+0x76>
    2056:	20 e0       	ldi	r18, 0x00	; 0
    2058:	30 e0       	ldi	r19, 0x00	; 0
    205a:	40 e0       	ldi	r20, 0x00	; 0
    205c:	57 ec       	ldi	r21, 0xC7	; 199
    205e:	c7 01       	movw	r24, r14
    2060:	b6 01       	movw	r22, r12
    2062:	0e 94 e1 13 	call	0x27c2	; 0x27c2 <__cmpsf2>
    2066:	18 16       	cp	r1, r24
    2068:	2c f0       	brlt	.+10     	; 0x2074 <cJSON_CreateNumber+0x6a>
    206a:	80 e0       	ldi	r24, 0x00	; 0
    206c:	90 e8       	ldi	r25, 0x80	; 128
    206e:	9b 87       	std	Y+11, r25	; 0x0b
    2070:	8a 87       	std	Y+10, r24	; 0x0a
    2072:	06 c0       	rjmp	.+12     	; 0x2080 <cJSON_CreateNumber+0x76>
    2074:	c7 01       	movw	r24, r14
    2076:	b6 01       	movw	r22, r12
    2078:	0e 94 e6 13 	call	0x27cc	; 0x27cc <__fixsfsi>
    207c:	7b 87       	std	Y+11, r23	; 0x0b
    207e:	6a 87       	std	Y+10, r22	; 0x0a
    2080:	ce 01       	movw	r24, r28
    2082:	df 91       	pop	r29
    2084:	cf 91       	pop	r28
    2086:	ff 90       	pop	r15
    2088:	ef 90       	pop	r14
    208a:	df 90       	pop	r13
    208c:	cf 90       	pop	r12
    208e:	08 95       	ret

00002090 <cJSON_AddNumberToObject>:
    2090:	cf 92       	push	r12
    2092:	df 92       	push	r13
    2094:	ef 92       	push	r14
    2096:	ff 92       	push	r15
    2098:	0f 93       	push	r16
    209a:	1f 93       	push	r17
    209c:	cf 93       	push	r28
    209e:	df 93       	push	r29
    20a0:	7c 01       	movw	r14, r24
    20a2:	6b 01       	movw	r12, r22
    20a4:	ca 01       	movw	r24, r20
    20a6:	b9 01       	movw	r22, r18
    20a8:	0e 94 05 10 	call	0x200a	; 0x200a <cJSON_CreateNumber>
    20ac:	d8 2f       	mov	r29, r24
    20ae:	c9 2f       	mov	r28, r25
    20b0:	00 e0       	ldi	r16, 0x00	; 0
    20b2:	10 e0       	ldi	r17, 0x00	; 0
    20b4:	26 e0       	ldi	r18, 0x06	; 6
    20b6:	31 e0       	ldi	r19, 0x01	; 1
    20b8:	48 2f       	mov	r20, r24
    20ba:	59 2f       	mov	r21, r25
    20bc:	b6 01       	movw	r22, r12
    20be:	c7 01       	movw	r24, r14
    20c0:	0e 94 4f 04 	call	0x89e	; 0x89e <add_item_to_object>
    20c4:	89 2b       	or	r24, r25
    20c6:	39 f4       	brne	.+14     	; 0x20d6 <cJSON_AddNumberToObject+0x46>
    20c8:	8d 2f       	mov	r24, r29
    20ca:	9c 2f       	mov	r25, r28
    20cc:	0e 94 16 0c 	call	0x182c	; 0x182c <cJSON_Delete>
    20d0:	80 e0       	ldi	r24, 0x00	; 0
    20d2:	90 e0       	ldi	r25, 0x00	; 0
    20d4:	02 c0       	rjmp	.+4      	; 0x20da <cJSON_AddNumberToObject+0x4a>
    20d6:	8d 2f       	mov	r24, r29
    20d8:	9c 2f       	mov	r25, r28
    20da:	df 91       	pop	r29
    20dc:	cf 91       	pop	r28
    20de:	1f 91       	pop	r17
    20e0:	0f 91       	pop	r16
    20e2:	ff 90       	pop	r15
    20e4:	ef 90       	pop	r14
    20e6:	df 90       	pop	r13
    20e8:	cf 90       	pop	r12
    20ea:	08 95       	ret

000020ec <cJSON_CreateString>:
    20ec:	0f 93       	push	r16
    20ee:	1f 93       	push	r17
    20f0:	cf 93       	push	r28
    20f2:	df 93       	push	r29
    20f4:	8c 01       	movw	r16, r24
    20f6:	86 e0       	ldi	r24, 0x06	; 6
    20f8:	91 e0       	ldi	r25, 0x01	; 1
    20fa:	0e 94 3b 05 	call	0xa76	; 0xa76 <cJSON_New_Item>
    20fe:	ec 01       	movw	r28, r24
    2100:	00 97       	sbiw	r24, 0x00	; 0
    2102:	99 f0       	breq	.+38     	; 0x212a <cJSON_CreateString+0x3e>
    2104:	80 e1       	ldi	r24, 0x10	; 16
    2106:	90 e0       	ldi	r25, 0x00	; 0
    2108:	9f 83       	std	Y+7, r25	; 0x07
    210a:	8e 83       	std	Y+6, r24	; 0x06
    210c:	66 e0       	ldi	r22, 0x06	; 6
    210e:	71 e0       	ldi	r23, 0x01	; 1
    2110:	c8 01       	movw	r24, r16
    2112:	0e 94 22 04 	call	0x844	; 0x844 <cJSON_strdup>
    2116:	99 87       	std	Y+9, r25	; 0x09
    2118:	88 87       	std	Y+8, r24	; 0x08
    211a:	89 2b       	or	r24, r25
    211c:	41 f4       	brne	.+16     	; 0x212e <cJSON_CreateString+0x42>
    211e:	ce 01       	movw	r24, r28
    2120:	0e 94 16 0c 	call	0x182c	; 0x182c <cJSON_Delete>
    2124:	80 e0       	ldi	r24, 0x00	; 0
    2126:	90 e0       	ldi	r25, 0x00	; 0
    2128:	04 c0       	rjmp	.+8      	; 0x2132 <cJSON_CreateString+0x46>
    212a:	9d 2f       	mov	r25, r29
    212c:	02 c0       	rjmp	.+4      	; 0x2132 <cJSON_CreateString+0x46>
    212e:	8c 2f       	mov	r24, r28
    2130:	9d 2f       	mov	r25, r29
    2132:	df 91       	pop	r29
    2134:	cf 91       	pop	r28
    2136:	1f 91       	pop	r17
    2138:	0f 91       	pop	r16
    213a:	08 95       	ret

0000213c <cJSON_AddStringToObject>:
    213c:	cf 92       	push	r12
    213e:	df 92       	push	r13
    2140:	ef 92       	push	r14
    2142:	ff 92       	push	r15
    2144:	0f 93       	push	r16
    2146:	1f 93       	push	r17
    2148:	cf 93       	push	r28
    214a:	df 93       	push	r29
    214c:	7c 01       	movw	r14, r24
    214e:	6b 01       	movw	r12, r22
    2150:	ca 01       	movw	r24, r20
    2152:	0e 94 76 10 	call	0x20ec	; 0x20ec <cJSON_CreateString>
    2156:	d8 2f       	mov	r29, r24
    2158:	c9 2f       	mov	r28, r25
    215a:	00 e0       	ldi	r16, 0x00	; 0
    215c:	10 e0       	ldi	r17, 0x00	; 0
    215e:	26 e0       	ldi	r18, 0x06	; 6
    2160:	31 e0       	ldi	r19, 0x01	; 1
    2162:	48 2f       	mov	r20, r24
    2164:	59 2f       	mov	r21, r25
    2166:	b6 01       	movw	r22, r12
    2168:	c7 01       	movw	r24, r14
    216a:	0e 94 4f 04 	call	0x89e	; 0x89e <add_item_to_object>
    216e:	89 2b       	or	r24, r25
    2170:	39 f4       	brne	.+14     	; 0x2180 <cJSON_AddStringToObject+0x44>
    2172:	8d 2f       	mov	r24, r29
    2174:	9c 2f       	mov	r25, r28
    2176:	0e 94 16 0c 	call	0x182c	; 0x182c <cJSON_Delete>
    217a:	80 e0       	ldi	r24, 0x00	; 0
    217c:	90 e0       	ldi	r25, 0x00	; 0
    217e:	02 c0       	rjmp	.+4      	; 0x2184 <cJSON_AddStringToObject+0x48>
    2180:	8d 2f       	mov	r24, r29
    2182:	9c 2f       	mov	r25, r28
    2184:	df 91       	pop	r29
    2186:	cf 91       	pop	r28
    2188:	1f 91       	pop	r17
    218a:	0f 91       	pop	r16
    218c:	ff 90       	pop	r15
    218e:	ef 90       	pop	r14
    2190:	df 90       	pop	r13
    2192:	cf 90       	pop	r12
    2194:	08 95       	ret

00002196 <cJSON_CreateObject>:
    2196:	86 e0       	ldi	r24, 0x06	; 6
    2198:	91 e0       	ldi	r25, 0x01	; 1
    219a:	0e 94 3b 05 	call	0xa76	; 0xa76 <cJSON_New_Item>
    219e:	00 97       	sbiw	r24, 0x00	; 0
    21a0:	29 f0       	breq	.+10     	; 0x21ac <cJSON_CreateObject+0x16>
    21a2:	20 e4       	ldi	r18, 0x40	; 64
    21a4:	30 e0       	ldi	r19, 0x00	; 0
    21a6:	fc 01       	movw	r30, r24
    21a8:	37 83       	std	Z+7, r19	; 0x07
    21aa:	26 83       	std	Z+6, r18	; 0x06
    21ac:	08 95       	ret

000021ae <cJSON_IsNumber>:
    21ae:	00 97       	sbiw	r24, 0x00	; 0
    21b0:	41 f0       	breq	.+16     	; 0x21c2 <cJSON_IsNumber+0x14>
    21b2:	fc 01       	movw	r30, r24
    21b4:	96 81       	ldd	r25, Z+6	; 0x06
    21b6:	81 e0       	ldi	r24, 0x01	; 1
    21b8:	98 30       	cpi	r25, 0x08	; 8
    21ba:	09 f0       	breq	.+2      	; 0x21be <cJSON_IsNumber+0x10>
    21bc:	80 e0       	ldi	r24, 0x00	; 0
    21be:	90 e0       	ldi	r25, 0x00	; 0
    21c0:	08 95       	ret
    21c2:	80 e0       	ldi	r24, 0x00	; 0
    21c4:	90 e0       	ldi	r25, 0x00	; 0
    21c6:	08 95       	ret

000021c8 <cJSON_IsString>:
    return (item->type & 0xFF) == cJSON_Number;
}

CJSON_PUBLIC(cJSON_bool) cJSON_IsString(const cJSON * const item)
{
    if (item == NULL)
    21c8:	00 97       	sbiw	r24, 0x00	; 0
    21ca:	41 f0       	breq	.+16     	; 0x21dc <cJSON_IsString+0x14>
    {
        return false;
    }

    return (item->type & 0xFF) == cJSON_String;
    21cc:	fc 01       	movw	r30, r24
    21ce:	96 81       	ldd	r25, Z+6	; 0x06
    21d0:	81 e0       	ldi	r24, 0x01	; 1
    21d2:	90 31       	cpi	r25, 0x10	; 16
    21d4:	09 f0       	breq	.+2      	; 0x21d8 <cJSON_IsString+0x10>
    21d6:	80 e0       	ldi	r24, 0x00	; 0
    21d8:	90 e0       	ldi	r25, 0x00	; 0
    21da:	08 95       	ret

CJSON_PUBLIC(cJSON_bool) cJSON_IsString(const cJSON * const item)
{
    if (item == NULL)
    {
        return false;
    21dc:	80 e0       	ldi	r24, 0x00	; 0
    21de:	90 e0       	ldi	r25, 0x00	; 0
    }

    return (item->type & 0xFF) == cJSON_String;
}
    21e0:	08 95       	ret

000021e2 <enviar_dados_para_pc_json>:
    UART_sendString(buffer);
}


void enviar_dados_para_pc_json(void)
{
    21e2:	ef 92       	push	r14
    21e4:	ff 92       	push	r15
    21e6:	0f 93       	push	r16
    21e8:	1f 93       	push	r17
    21ea:	cf 93       	push	r28
    21ec:	df 93       	push	r29
	cJSON *json = cJSON_CreateObject();
    21ee:	0e 94 cb 10 	call	0x2196	; 0x2196 <cJSON_CreateObject>
    21f2:	7c 01       	movw	r14, r24

	cJSON_AddStringToObject(json, "of", dados.ordem_fabrico);
    21f4:	48 ec       	ldi	r20, 0xC8	; 200
    21f6:	52 e0       	ldi	r21, 0x02	; 2
    21f8:	6c e7       	ldi	r22, 0x7C	; 124
    21fa:	71 e0       	ldi	r23, 0x01	; 1
    21fc:	0e 94 9e 10 	call	0x213c	; 0x213c <cJSON_AddStringToObject>
	cJSON_AddNumberToObject(json, "total", dados.quantidade_total);
    2200:	c8 ec       	ldi	r28, 0xC8	; 200
    2202:	d2 e0       	ldi	r29, 0x02	; 2
    2204:	68 89       	ldd	r22, Y+16	; 0x10
    2206:	79 89       	ldd	r23, Y+17	; 0x11
    2208:	80 e0       	ldi	r24, 0x00	; 0
    220a:	90 e0       	ldi	r25, 0x00	; 0
    220c:	0e 94 1c 14 	call	0x2838	; 0x2838 <__floatunsisf>
    2210:	9b 01       	movw	r18, r22
    2212:	ac 01       	movw	r20, r24
    2214:	6f e7       	ldi	r22, 0x7F	; 127
    2216:	71 e0       	ldi	r23, 0x01	; 1
    2218:	c7 01       	movw	r24, r14
    221a:	0e 94 48 10 	call	0x2090	; 0x2090 <cJSON_AddNumberToObject>
	cJSON_AddNumberToObject(json, "entrada", dados.contador_entrada);
    221e:	6e 89       	ldd	r22, Y+22	; 0x16
    2220:	7f 89       	ldd	r23, Y+23	; 0x17
    2222:	80 e0       	ldi	r24, 0x00	; 0
    2224:	90 e0       	ldi	r25, 0x00	; 0
    2226:	0e 94 1c 14 	call	0x2838	; 0x2838 <__floatunsisf>
    222a:	9b 01       	movw	r18, r22
    222c:	ac 01       	movw	r20, r24
    222e:	65 e8       	ldi	r22, 0x85	; 133
    2230:	71 e0       	ldi	r23, 0x01	; 1
    2232:	c7 01       	movw	r24, r14
    2234:	0e 94 48 10 	call	0x2090	; 0x2090 <cJSON_AddNumberToObject>
	cJSON_AddNumberToObject(json, "saida", dados.contador_saida);
    2238:	68 8d       	ldd	r22, Y+24	; 0x18
    223a:	79 8d       	ldd	r23, Y+25	; 0x19
    223c:	80 e0       	ldi	r24, 0x00	; 0
    223e:	90 e0       	ldi	r25, 0x00	; 0
    2240:	0e 94 1c 14 	call	0x2838	; 0x2838 <__floatunsisf>
    2244:	9b 01       	movw	r18, r22
    2246:	ac 01       	movw	r20, r24
    2248:	6d e8       	ldi	r22, 0x8D	; 141
    224a:	71 e0       	ldi	r23, 0x01	; 1
    224c:	c7 01       	movw	r24, r14
    224e:	0e 94 48 10 	call	0x2090	; 0x2090 <cJSON_AddNumberToObject>
	cJSON_AddNumberToObject(json, "producao", dados.quantidade_produzida);
    2252:	6a 89       	ldd	r22, Y+18	; 0x12
    2254:	7b 89       	ldd	r23, Y+19	; 0x13
    2256:	80 e0       	ldi	r24, 0x00	; 0
    2258:	90 e0       	ldi	r25, 0x00	; 0
    225a:	0e 94 1c 14 	call	0x2838	; 0x2838 <__floatunsisf>
    225e:	9b 01       	movw	r18, r22
    2260:	ac 01       	movw	r20, r24
    2262:	63 e9       	ldi	r22, 0x93	; 147
    2264:	71 e0       	ldi	r23, 0x01	; 1
    2266:	c7 01       	movw	r24, r14
    2268:	0e 94 48 10 	call	0x2090	; 0x2090 <cJSON_AddNumberToObject>
	cJSON_AddNumberToObject(json, "desperdicio", dados.desperdicio);
    226c:	6c 89       	ldd	r22, Y+20	; 0x14
    226e:	7d 89       	ldd	r23, Y+21	; 0x15
    2270:	80 e0       	ldi	r24, 0x00	; 0
    2272:	90 e0       	ldi	r25, 0x00	; 0
    2274:	0e 94 1c 14 	call	0x2838	; 0x2838 <__floatunsisf>
    2278:	9b 01       	movw	r18, r22
    227a:	ac 01       	movw	r20, r24
    227c:	6c e9       	ldi	r22, 0x9C	; 156
    227e:	71 e0       	ldi	r23, 0x01	; 1
    2280:	c7 01       	movw	r24, r14
    2282:	0e 94 48 10 	call	0x2090	; 0x2090 <cJSON_AddNumberToObject>
	cJSON_AddNumberToObject(json, "ativo", dados.sistema_ativo);
    2286:	6a 8d       	ldd	r22, Y+26	; 0x1a
    2288:	70 e0       	ldi	r23, 0x00	; 0
    228a:	80 e0       	ldi	r24, 0x00	; 0
    228c:	90 e0       	ldi	r25, 0x00	; 0
    228e:	0e 94 1c 14 	call	0x2838	; 0x2838 <__floatunsisf>
    2292:	9b 01       	movw	r18, r22
    2294:	ac 01       	movw	r20, r24
    2296:	68 ea       	ldi	r22, 0xA8	; 168
    2298:	71 e0       	ldi	r23, 0x01	; 1
    229a:	c7 01       	movw	r24, r14
    229c:	0e 94 48 10 	call	0x2090	; 0x2090 <cJSON_AddNumberToObject>

	char *msg = cJSON_PrintUnformatted(json);
    22a0:	c7 01       	movw	r24, r14
    22a2:	0e 94 f9 0f 	call	0x1ff2	; 0x1ff2 <cJSON_PrintUnformatted>
    22a6:	8c 01       	movw	r16, r24
	UART_sendString(msg);
    22a8:	0e 94 5c 13 	call	0x26b8	; 0x26b8 <UART_sendString>
	UART_sendString("\r\n");
    22ac:	80 ec       	ldi	r24, 0xC0	; 192
    22ae:	92 e0       	ldi	r25, 0x02	; 2
    22b0:	0e 94 5c 13 	call	0x26b8	; 0x26b8 <UART_sendString>

	free(msg);
    22b4:	c8 01       	movw	r24, r16
    22b6:	0e 94 00 16 	call	0x2c00	; 0x2c00 <free>
	//cJSON_free(msg);
	cJSON_Delete(json);
    22ba:	c7 01       	movw	r24, r14
    22bc:	0e 94 16 0c 	call	0x182c	; 0x182c <cJSON_Delete>
}
    22c0:	df 91       	pop	r29
    22c2:	cf 91       	pop	r28
    22c4:	1f 91       	pop	r17
    22c6:	0f 91       	pop	r16
    22c8:	ff 90       	pop	r15
    22ca:	ef 90       	pop	r14
    22cc:	08 95       	ret

000022ce <ANALOGICAS_init>:
#include <avr/io.h>
#include "entradas_analogicas.h"

void ANALOGICAS_init(void)
{
    ADMUX = (1 << REFS0);
    22ce:	80 e4       	ldi	r24, 0x40	; 64
    22d0:	80 93 7c 00 	sts	0x007C, r24	; 0x80007c <__TEXT_REGION_LENGTH__+0x7f807c>
    ADCSRA = (1 << ADEN) | (1 << ADPS2) | (1 << ADPS1);
    22d4:	86 e8       	ldi	r24, 0x86	; 134
    22d6:	80 93 7a 00 	sts	0x007A, r24	; 0x80007a <__TEXT_REGION_LENGTH__+0x7f807a>
    22da:	08 95       	ret

000022dc <ENTRADAS_init>:
#include <avr/io.h>
#include "entradas_digitais.h"

void ENTRADAS_init(void)
{
    DDRC &= ~(1 << PC3);
    22dc:	87 b1       	in	r24, 0x07	; 7
    22de:	87 7f       	andi	r24, 0xF7	; 247
    22e0:	87 b9       	out	0x07, r24	; 7
    DDRD &= ~(1 << PD4 | 1 << PD7);
    22e2:	8a b1       	in	r24, 0x0a	; 10
    22e4:	8f 76       	andi	r24, 0x6F	; 111
    22e6:	8a b9       	out	0x0a, r24	; 10
    DDRB &= ~(1 << PB0 | 1 << PB1 | 1 << PB2);
    22e8:	84 b1       	in	r24, 0x04	; 4
    22ea:	88 7f       	andi	r24, 0xF8	; 248
    22ec:	84 b9       	out	0x04, r24	; 4
	PORTC |= (1 << PC3);
    22ee:	88 b1       	in	r24, 0x08	; 8
    22f0:	88 60       	ori	r24, 0x08	; 8
    22f2:	88 b9       	out	0x08, r24	; 8
    PORTD |= (1 << PD4) | (1 << PD7);
    22f4:	8b b1       	in	r24, 0x0b	; 11
    22f6:	80 69       	ori	r24, 0x90	; 144
    22f8:	8b b9       	out	0x0b, r24	; 11
    PORTB |= (1 << PB0) | (1 << PB1) | (1 << PB2);
    22fa:	85 b1       	in	r24, 0x05	; 5
    22fc:	87 60       	ori	r24, 0x07	; 7
    22fe:	85 b9       	out	0x05, r24	; 5
    2300:	08 95       	ret

00002302 <ler_sensor_entrada>:
}

uint8_t ler_sensor_entrada(void)    { return !(PINC & (1 << PC3)); }
    2302:	86 b1       	in	r24, 0x06	; 6
    2304:	86 95       	lsr	r24
    2306:	86 95       	lsr	r24
    2308:	86 95       	lsr	r24
    230a:	91 e0       	ldi	r25, 0x01	; 1
    230c:	89 27       	eor	r24, r25
    230e:	81 70       	andi	r24, 0x01	; 1
    2310:	08 95       	ret

00002312 <ler_sensor_saida>:
uint8_t ler_sensor_saida(void)      { return !(PIND & (1 << PD4)); }
    2312:	89 b1       	in	r24, 0x09	; 9
    2314:	82 95       	swap	r24
    2316:	8f 70       	andi	r24, 0x0F	; 15
    2318:	91 e0       	ldi	r25, 0x01	; 1
    231a:	89 27       	eor	r24, r25
    231c:	81 70       	andi	r24, 0x01	; 1
    231e:	08 95       	ret

00002320 <processar_json>:
	
*/


void processar_json(const char *json_str)
{
    2320:	cf 92       	push	r12
    2322:	df 92       	push	r13
    2324:	ef 92       	push	r14
    2326:	ff 92       	push	r15
    2328:	0f 93       	push	r16
    232a:	1f 93       	push	r17
    232c:	cf 93       	push	r28
    232e:	df 93       	push	r29
	cJSON *json = cJSON_Parse(json_str);
    2330:	0e 94 f2 0f 	call	0x1fe4	; 0x1fe4 <cJSON_Parse>
    2334:	ec 01       	movw	r28, r24
	if (!json) {
    2336:	00 97       	sbiw	r24, 0x00	; 0
    2338:	29 f4       	brne	.+10     	; 0x2344 <processar_json+0x24>
		UART_sendString("{\"status\":\"ERRO\",\"msg\":\"JSON invalido\"}\r\n");
    233a:	8e ea       	ldi	r24, 0xAE	; 174
    233c:	91 e0       	ldi	r25, 0x01	; 1
    233e:	0e 94 5c 13 	call	0x26b8	; 0x26b8 <UART_sendString>
		return;
    2342:	8a c0       	rjmp	.+276    	; 0x2458 <processar_json+0x138>
	}

	const cJSON *cmd = cJSON_GetObjectItem(json, "cmd");
    2344:	68 ed       	ldi	r22, 0xD8	; 216
    2346:	71 e0       	ldi	r23, 0x01	; 1
    2348:	0e 94 00 10 	call	0x2000	; 0x2000 <cJSON_GetObjectItem>
    234c:	8c 01       	movw	r16, r24
	const cJSON *of = cJSON_GetObjectItem(json, "of");
    234e:	6c e7       	ldi	r22, 0x7C	; 124
    2350:	71 e0       	ldi	r23, 0x01	; 1
    2352:	ce 01       	movw	r24, r28
    2354:	0e 94 00 10 	call	0x2000	; 0x2000 <cJSON_GetObjectItem>
    2358:	6c 01       	movw	r12, r24
	const cJSON *setq = cJSON_GetObjectItem(json, "setq");
    235a:	6c ed       	ldi	r22, 0xDC	; 220
    235c:	71 e0       	ldi	r23, 0x01	; 1
    235e:	ce 01       	movw	r24, r28
    2360:	0e 94 00 10 	call	0x2000	; 0x2000 <cJSON_GetObjectItem>
    2364:	7c 01       	movw	r14, r24

	if (cJSON_IsString(cmd)) {
    2366:	c8 01       	movw	r24, r16
    2368:	0e 94 e4 10 	call	0x21c8	; 0x21c8 <cJSON_IsString>
    236c:	89 2b       	or	r24, r25
    236e:	09 f4       	brne	.+2      	; 0x2372 <processar_json+0x52>
    2370:	4a c0       	rjmp	.+148    	; 0x2406 <processar_json+0xe6>
		if (strcmp(cmd->valuestring, "start") == 0) {
    2372:	f8 01       	movw	r30, r16
    2374:	00 85       	ldd	r16, Z+8	; 0x08
    2376:	11 85       	ldd	r17, Z+9	; 0x09
    2378:	61 ee       	ldi	r22, 0xE1	; 225
    237a:	71 e0       	ldi	r23, 0x01	; 1
    237c:	c8 01       	movw	r24, r16
    237e:	0e 94 cf 18 	call	0x319e	; 0x319e <strcmp>
    2382:	89 2b       	or	r24, r25
    2384:	69 f4       	brne	.+26     	; 0x23a0 <processar_json+0x80>
			dados.quantidade_produzida = 0;
    2386:	e8 ec       	ldi	r30, 0xC8	; 200
    2388:	f2 e0       	ldi	r31, 0x02	; 2
    238a:	13 8a       	std	Z+19, r1	; 0x13
    238c:	12 8a       	std	Z+18, r1	; 0x12
			dados.desperdicio = 0;
    238e:	15 8a       	std	Z+21, r1	; 0x15
    2390:	14 8a       	std	Z+20, r1	; 0x14
			dados.sistema_ativo = 1;
    2392:	81 e0       	ldi	r24, 0x01	; 1
    2394:	82 8f       	std	Z+26, r24	; 0x1a
			UART_sendString("{\"status\":\"OK\",\"action\":\"start\"}\r\n");
    2396:	87 ee       	ldi	r24, 0xE7	; 231
    2398:	91 e0       	ldi	r25, 0x01	; 1
    239a:	0e 94 5c 13 	call	0x26b8	; 0x26b8 <UART_sendString>
    239e:	33 c0       	rjmp	.+102    	; 0x2406 <processar_json+0xe6>
			} else if (strcmp(cmd->valuestring, "pause") == 0) {
    23a0:	6a e0       	ldi	r22, 0x0A	; 10
    23a2:	72 e0       	ldi	r23, 0x02	; 2
    23a4:	c8 01       	movw	r24, r16
    23a6:	0e 94 cf 18 	call	0x319e	; 0x319e <strcmp>
    23aa:	89 2b       	or	r24, r25
    23ac:	39 f4       	brne	.+14     	; 0x23bc <processar_json+0x9c>
			dados.sistema_ativo = 0;
    23ae:	10 92 e2 02 	sts	0x02E2, r1	; 0x8002e2 <dados+0x1a>
			UART_sendString("{\"status\":\"OK\",\"action\":\"pause\"}\r\n");
    23b2:	80 e1       	ldi	r24, 0x10	; 16
    23b4:	92 e0       	ldi	r25, 0x02	; 2
    23b6:	0e 94 5c 13 	call	0x26b8	; 0x26b8 <UART_sendString>
    23ba:	25 c0       	rjmp	.+74     	; 0x2406 <processar_json+0xe6>
			} else if (strcmp(cmd->valuestring, "cancel") == 0) {
    23bc:	63 e3       	ldi	r22, 0x33	; 51
    23be:	72 e0       	ldi	r23, 0x02	; 2
    23c0:	c8 01       	movw	r24, r16
    23c2:	0e 94 cf 18 	call	0x319e	; 0x319e <strcmp>
    23c6:	89 2b       	or	r24, r25
    23c8:	f1 f4       	brne	.+60     	; 0x2406 <processar_json+0xe6>
			dados.quantidade_produzida = 0;
    23ca:	e8 ec       	ldi	r30, 0xC8	; 200
    23cc:	f2 e0       	ldi	r31, 0x02	; 2
    23ce:	13 8a       	std	Z+19, r1	; 0x13
    23d0:	12 8a       	std	Z+18, r1	; 0x12
			dados.desperdicio = 0;
    23d2:	15 8a       	std	Z+21, r1	; 0x15
    23d4:	14 8a       	std	Z+20, r1	; 0x14
			dados.contador_entrada = 0;
    23d6:	17 8a       	std	Z+23, r1	; 0x17
    23d8:	16 8a       	std	Z+22, r1	; 0x16
			dados.contador_saida = 0;
    23da:	11 8e       	std	Z+25, r1	; 0x19
    23dc:	10 8e       	std	Z+24, r1	; 0x18
			dados.quantidade_total = 0;
    23de:	11 8a       	std	Z+17, r1	; 0x11
    23e0:	10 8a       	std	Z+16, r1	; 0x10
			dados.sistema_ativo = 0;
    23e2:	12 8e       	std	Z+26, r1	; 0x1a
			strcpy(dados.ordem_fabrico, "SEM_OF");
    23e4:	87 e0       	ldi	r24, 0x07	; 7
    23e6:	ea e3       	ldi	r30, 0x3A	; 58
    23e8:	f2 e0       	ldi	r31, 0x02	; 2
    23ea:	a8 ec       	ldi	r26, 0xC8	; 200
    23ec:	b2 e0       	ldi	r27, 0x02	; 2
    23ee:	01 90       	ld	r0, Z+
    23f0:	0d 92       	st	X+, r0
    23f2:	8a 95       	dec	r24
    23f4:	e1 f7       	brne	.-8      	; 0x23ee <processar_json+0xce>
			salvar_total_na_eeprom(0);
    23f6:	80 e0       	ldi	r24, 0x00	; 0
    23f8:	90 e0       	ldi	r25, 0x00	; 0
    23fa:	0e 94 d4 12 	call	0x25a8	; 0x25a8 <salvar_total_na_eeprom>
			UART_sendString("{\"status\":\"OK\",\"action\":\"cancel\"}\r\n");
    23fe:	81 e4       	ldi	r24, 0x41	; 65
    2400:	92 e0       	ldi	r25, 0x02	; 2
    2402:	0e 94 5c 13 	call	0x26b8	; 0x26b8 <UART_sendString>
		}
	}

	if (cJSON_IsString(of)) {
    2406:	c6 01       	movw	r24, r12
    2408:	0e 94 e4 10 	call	0x21c8	; 0x21c8 <cJSON_IsString>
    240c:	89 2b       	or	r24, r25
    240e:	79 f0       	breq	.+30     	; 0x242e <processar_json+0x10e>
		strncpy(dados.ordem_fabrico, of->valuestring, sizeof(dados.ordem_fabrico) - 1);
    2410:	f6 01       	movw	r30, r12
    2412:	60 85       	ldd	r22, Z+8	; 0x08
    2414:	71 85       	ldd	r23, Z+9	; 0x09
    2416:	4f e0       	ldi	r20, 0x0F	; 15
    2418:	50 e0       	ldi	r21, 0x00	; 0
    241a:	88 ec       	ldi	r24, 0xC8	; 200
    241c:	92 e0       	ldi	r25, 0x02	; 2
    241e:	0e 94 e6 18 	call	0x31cc	; 0x31cc <strncpy>
		dados.ordem_fabrico[sizeof(dados.ordem_fabrico) - 1] = '\0';
    2422:	10 92 d7 02 	sts	0x02D7, r1	; 0x8002d7 <dados+0xf>
		UART_sendString("{\"status\":\"OK\",\"action\":\"of\"}\r\n");
    2426:	85 e6       	ldi	r24, 0x65	; 101
    2428:	92 e0       	ldi	r25, 0x02	; 2
    242a:	0e 94 5c 13 	call	0x26b8	; 0x26b8 <UART_sendString>
	}

	if (cJSON_IsNumber(setq)) {
    242e:	c7 01       	movw	r24, r14
    2430:	0e 94 d7 10 	call	0x21ae	; 0x21ae <cJSON_IsNumber>
    2434:	89 2b       	or	r24, r25
    2436:	69 f0       	breq	.+26     	; 0x2452 <processar_json+0x132>
		dados.quantidade_total = setq->valueint;
    2438:	f7 01       	movw	r30, r14
    243a:	82 85       	ldd	r24, Z+10	; 0x0a
    243c:	93 85       	ldd	r25, Z+11	; 0x0b
    243e:	90 93 d9 02 	sts	0x02D9, r25	; 0x8002d9 <dados+0x11>
    2442:	80 93 d8 02 	sts	0x02D8, r24	; 0x8002d8 <dados+0x10>
		salvar_total_na_eeprom(dados.quantidade_total);
    2446:	0e 94 d4 12 	call	0x25a8	; 0x25a8 <salvar_total_na_eeprom>
		UART_sendString("{\"status\":\"OK\",\"action\":\"setq\"}\r\n");
    244a:	85 e8       	ldi	r24, 0x85	; 133
    244c:	92 e0       	ldi	r25, 0x02	; 2
    244e:	0e 94 5c 13 	call	0x26b8	; 0x26b8 <UART_sendString>
	}

	cJSON_Delete(json);
    2452:	ce 01       	movw	r24, r28
    2454:	0e 94 16 0c 	call	0x182c	; 0x182c <cJSON_Delete>
}
    2458:	df 91       	pop	r29
    245a:	cf 91       	pop	r28
    245c:	1f 91       	pop	r17
    245e:	0f 91       	pop	r16
    2460:	ff 90       	pop	r15
    2462:	ef 90       	pop	r14
    2464:	df 90       	pop	r13
    2466:	cf 90       	pop	r12
    2468:	08 95       	ret

0000246a <main>:
int main(void)
{
    246a:	cf 93       	push	r28
    246c:	df 93       	push	r29
    246e:	cd b7       	in	r28, 0x3d	; 61
    2470:	de b7       	in	r29, 0x3e	; 62
    2472:	c0 58       	subi	r28, 0x80	; 128
    2474:	d1 09       	sbc	r29, r1
    2476:	0f b6       	in	r0, 0x3f	; 63
    2478:	f8 94       	cli
    247a:	de bf       	out	0x3e, r29	; 62
    247c:	0f be       	out	0x3f, r0	; 63
    247e:	cd bf       	out	0x3d, r28	; 61
	UART_init(38400);
    2480:	80 e0       	ldi	r24, 0x00	; 0
    2482:	96 e9       	ldi	r25, 0x96	; 150
    2484:	0e 94 3f 13 	call	0x267e	; 0x267e <UART_init>
	TIMER0_init();
    2488:	0e 94 f0 12 	call	0x25e0	; 0x25e0 <TIMER0_init>
	ENTRADAS_init();
    248c:	0e 94 6e 11 	call	0x22dc	; 0x22dc <ENTRADAS_init>
	ANALOGICAS_init();
    2490:	0e 94 67 11 	call	0x22ce	; 0x22ce <ANALOGICAS_init>
	SAIDAS_init();
    2494:	0e 94 df 12 	call	0x25be	; 0x25be <SAIDAS_init>

	dados.quantidade_total = ler_total_da_eeprom();
    2498:	0e 94 da 12 	call	0x25b4	; 0x25b4 <ler_total_da_eeprom>
    249c:	90 93 d9 02 	sts	0x02D9, r25	; 0x8002d9 <dados+0x11>
    24a0:	80 93 d8 02 	sts	0x02D8, r24	; 0x8002d8 <dados+0x10>
	strcpy(dados.ordem_fabrico, "SEM_OF");
    24a4:	87 e0       	ldi	r24, 0x07	; 7
    24a6:	ea e3       	ldi	r30, 0x3A	; 58
    24a8:	f2 e0       	ldi	r31, 0x02	; 2
    24aa:	a8 ec       	ldi	r26, 0xC8	; 200
    24ac:	b2 e0       	ldi	r27, 0x02	; 2
    24ae:	01 90       	ld	r0, Z+
    24b0:	0d 92       	st	X+, r0
    24b2:	8a 95       	dec	r24
    24b4:	e1 f7       	brne	.-8      	; 0x24ae <main+0x44>

	char comando[128];
	uint8_t idx = 0;

	UART_sendString("Sistema OEE v2.5 iniciado\r\n");
    24b6:	87 ea       	ldi	r24, 0xA7	; 167
    24b8:	92 e0       	ldi	r25, 0x02	; 2
    24ba:	0e 94 5c 13 	call	0x26b8	; 0x26b8 <UART_sendString>

	dados.quantidade_total = ler_total_da_eeprom();
	strcpy(dados.ordem_fabrico, "SEM_OF");

	char comando[128];
	uint8_t idx = 0;
    24be:	00 e0       	ldi	r16, 0x00	; 0
	UART_sendString("Sistema OEE v2.5 iniciado\r\n");

	while (1)
	{
		// Heartbeat separado
		if (TIMER0_check500ms()) {
    24c0:	0e 94 37 13 	call	0x266e	; 0x266e <TIMER0_check500ms>
    24c4:	88 23       	and	r24, r24
    24c6:	59 f0       	breq	.+22     	; 0x24de <main+0x74>
			static uint8_t estado_heartbeat = 0;
			set_led_heartbeat(estado_heartbeat);
    24c8:	80 91 e3 02 	lds	r24, 0x02E3	; 0x8002e3 <estado_heartbeat.2585>
    24cc:	0e 94 e6 12 	call	0x25cc	; 0x25cc <set_led_heartbeat>
			estado_heartbeat = !estado_heartbeat;
    24d0:	81 e0       	ldi	r24, 0x01	; 1
    24d2:	90 91 e3 02 	lds	r25, 0x02E3	; 0x8002e3 <estado_heartbeat.2585>
    24d6:	91 11       	cpse	r25, r1
    24d8:	80 e0       	ldi	r24, 0x00	; 0
    24da:	80 93 e3 02 	sts	0x02E3, r24	; 0x8002e3 <estado_heartbeat.2585>
		}

		// Leitura do comando UART
		if (UART_available()) {
    24de:	0e 94 69 13 	call	0x26d2	; 0x26d2 <UART_available>
    24e2:	88 23       	and	r24, r24
    24e4:	e9 f0       	breq	.+58     	; 0x2520 <main+0xb6>
			char c = UART_readChar();
    24e6:	0e 94 6d 13 	call	0x26da	; 0x26da <UART_readChar>
			if (c == '\n' || c == '\r') {
    24ea:	8a 30       	cpi	r24, 0x0A	; 10
    24ec:	11 f0       	breq	.+4      	; 0x24f2 <main+0x88>
    24ee:	8d 30       	cpi	r24, 0x0D	; 13
    24f0:	69 f4       	brne	.+26     	; 0x250c <main+0xa2>
				comando[idx] = '\0';
    24f2:	e1 e0       	ldi	r30, 0x01	; 1
    24f4:	f0 e0       	ldi	r31, 0x00	; 0
    24f6:	ec 0f       	add	r30, r28
    24f8:	fd 1f       	adc	r31, r29
    24fa:	e0 0f       	add	r30, r16
    24fc:	f1 1d       	adc	r31, r1
    24fe:	10 82       	st	Z, r1
				processar_json(comando);
    2500:	ce 01       	movw	r24, r28
    2502:	01 96       	adiw	r24, 0x01	; 1
    2504:	0e 94 90 11 	call	0x2320	; 0x2320 <processar_json>
				idx = 0;
    2508:	00 e0       	ldi	r16, 0x00	; 0
    250a:	0a c0       	rjmp	.+20     	; 0x2520 <main+0xb6>
				} else if (idx < sizeof(comando) - 1) {
    250c:	0f 37       	cpi	r16, 0x7F	; 127
    250e:	40 f4       	brcc	.+16     	; 0x2520 <main+0xb6>
				comando[idx++] = c;
    2510:	e1 e0       	ldi	r30, 0x01	; 1
    2512:	f0 e0       	ldi	r31, 0x00	; 0
    2514:	ec 0f       	add	r30, r28
    2516:	fd 1f       	adc	r31, r29
    2518:	e0 0f       	add	r30, r16
    251a:	f1 1d       	adc	r31, r1
    251c:	80 83       	st	Z, r24
    251e:	0f 5f       	subi	r16, 0xFF	; 255
			}
		}

		// Lgica de produo ativa
		if (dados.sistema_ativo && TIMER0_check1s()) {
    2520:	80 91 e2 02 	lds	r24, 0x02E2	; 0x8002e2 <dados+0x1a>
    2524:	88 23       	and	r24, r24
    2526:	61 f2       	breq	.-104    	; 0x24c0 <main+0x56>
    2528:	0e 94 2f 13 	call	0x265e	; 0x265e <TIMER0_check1s>
    252c:	88 23       	and	r24, r24
    252e:	41 f2       	breq	.-112    	; 0x24c0 <main+0x56>
			uint8_t entrada = ler_sensor_entrada();
    2530:	0e 94 81 11 	call	0x2302	; 0x2302 <ler_sensor_entrada>
    2534:	18 2f       	mov	r17, r24
			uint8_t saida = ler_sensor_saida();
    2536:	0e 94 89 11 	call	0x2312	; 0x2312 <ler_sensor_saida>

			if (entrada && !anterior_entrada)
    253a:	11 23       	and	r17, r17
    253c:	61 f0       	breq	.+24     	; 0x2556 <main+0xec>
    253e:	90 91 e5 02 	lds	r25, 0x02E5	; 0x8002e5 <anterior_entrada>
    2542:	91 11       	cpse	r25, r1
    2544:	08 c0       	rjmp	.+16     	; 0x2556 <main+0xec>
			dados.contador_entrada++;
    2546:	e8 ec       	ldi	r30, 0xC8	; 200
    2548:	f2 e0       	ldi	r31, 0x02	; 2
    254a:	26 89       	ldd	r18, Z+22	; 0x16
    254c:	37 89       	ldd	r19, Z+23	; 0x17
    254e:	2f 5f       	subi	r18, 0xFF	; 255
    2550:	3f 4f       	sbci	r19, 0xFF	; 255
    2552:	37 8b       	std	Z+23, r19	; 0x17
    2554:	26 8b       	std	Z+22, r18	; 0x16

			if (saida && !anterior_saida)
    2556:	88 23       	and	r24, r24
    2558:	61 f0       	breq	.+24     	; 0x2572 <main+0x108>
    255a:	90 91 e4 02 	lds	r25, 0x02E4	; 0x8002e4 <anterior_saida>
    255e:	91 11       	cpse	r25, r1
    2560:	08 c0       	rjmp	.+16     	; 0x2572 <main+0x108>
			dados.contador_saida++;
    2562:	e8 ec       	ldi	r30, 0xC8	; 200
    2564:	f2 e0       	ldi	r31, 0x02	; 2
    2566:	20 8d       	ldd	r18, Z+24	; 0x18
    2568:	31 8d       	ldd	r19, Z+25	; 0x19
    256a:	2f 5f       	subi	r18, 0xFF	; 255
    256c:	3f 4f       	sbci	r19, 0xFF	; 255
    256e:	31 8f       	std	Z+25, r19	; 0x19
    2570:	20 8f       	std	Z+24, r18	; 0x18

			anterior_entrada = entrada;
    2572:	10 93 e5 02 	sts	0x02E5, r17	; 0x8002e5 <anterior_entrada>
			anterior_saida = saida;
    2576:	80 93 e4 02 	sts	0x02E4, r24	; 0x8002e4 <anterior_saida>

			dados.quantidade_produzida = dados.contador_saida;
    257a:	e8 ec       	ldi	r30, 0xC8	; 200
    257c:	f2 e0       	ldi	r31, 0x02	; 2
    257e:	20 8d       	ldd	r18, Z+24	; 0x18
    2580:	31 8d       	ldd	r19, Z+25	; 0x19
    2582:	33 8b       	std	Z+19, r19	; 0x13
    2584:	22 8b       	std	Z+18, r18	; 0x12
			dados.desperdicio = (dados.contador_entrada > dados.contador_saida)
    2586:	86 89       	ldd	r24, Z+22	; 0x16
    2588:	97 89       	ldd	r25, Z+23	; 0x17
			? (dados.contador_entrada - dados.contador_saida)
			: 0;
    258a:	28 17       	cp	r18, r24
    258c:	39 07       	cpc	r19, r25
    258e:	18 f4       	brcc	.+6      	; 0x2596 <main+0x12c>
    2590:	82 1b       	sub	r24, r18
    2592:	93 0b       	sbc	r25, r19
    2594:	02 c0       	rjmp	.+4      	; 0x259a <main+0x130>
    2596:	80 e0       	ldi	r24, 0x00	; 0
    2598:	90 e0       	ldi	r25, 0x00	; 0

			anterior_entrada = entrada;
			anterior_saida = saida;

			dados.quantidade_produzida = dados.contador_saida;
			dados.desperdicio = (dados.contador_entrada > dados.contador_saida)
    259a:	90 93 dd 02 	sts	0x02DD, r25	; 0x8002dd <dados+0x15>
    259e:	80 93 dc 02 	sts	0x02DC, r24	; 0x8002dc <dados+0x14>
			? (dados.contador_entrada - dados.contador_saida)
			: 0;

			enviar_dados_para_pc_json();
    25a2:	0e 94 f1 10 	call	0x21e2	; 0x21e2 <enviar_dados_para_pc_json>
    25a6:	8c cf       	rjmp	.-232    	; 0x24c0 <main+0x56>

000025a8 <salvar_total_na_eeprom>:
#include <avr/eeprom.h>
#include "memoria.h"

void salvar_total_na_eeprom(uint16_t total)
{
    eeprom_update_word((uint16_t*)0, total);
    25a8:	bc 01       	movw	r22, r24
    25aa:	80 e0       	ldi	r24, 0x00	; 0
    25ac:	90 e0       	ldi	r25, 0x00	; 0
    25ae:	0e 94 d9 1e 	call	0x3db2	; 0x3db2 <eeprom_update_word>
    25b2:	08 95       	ret

000025b4 <ler_total_da_eeprom>:
}

uint16_t ler_total_da_eeprom(void)
{
    return eeprom_read_word((uint16_t*)0);
    25b4:	80 e0       	ldi	r24, 0x00	; 0
    25b6:	90 e0       	ldi	r25, 0x00	; 0
    25b8:	0e 94 d3 1e 	call	0x3da6	; 0x3da6 <eeprom_read_word>
    25bc:	08 95       	ret

000025be <SAIDAS_init>:
}

void set_autorizacao(uint8_t estado)       { if (estado) PORTD |= (1 << PD2); else PORTD &= ~(1 << PD2); }
void set_led_avaria(uint8_t estado)        { if (estado) PORTD |= (1 << PD3); else PORTD &= ~(1 << PD3); }
void set_led_warning(uint8_t estado)       { if (estado) PORTD |= (1 << PD5); else PORTD &= ~(1 << PD5); }
void set_led_normal(uint8_t estado)        { if (estado) PORTD |= (1 << PD6); else PORTD &= ~(1 << PD6); }
    25be:	8a b1       	in	r24, 0x0a	; 10
    25c0:	8c 66       	ori	r24, 0x6C	; 108
    25c2:	8a b9       	out	0x0a, r24	; 10
    25c4:	87 b1       	in	r24, 0x07	; 7
    25c6:	80 63       	ori	r24, 0x30	; 48
    25c8:	87 b9       	out	0x07, r24	; 7
    25ca:	08 95       	ret

000025cc <set_led_heartbeat>:
void set_led_heartbeat(uint8_t estado)     { if (estado) PORTC |= (1 << PC4); else PORTC &= ~(1 << PC4); }
    25cc:	88 23       	and	r24, r24
    25ce:	21 f0       	breq	.+8      	; 0x25d8 <set_led_heartbeat+0xc>
    25d0:	88 b1       	in	r24, 0x08	; 8
    25d2:	80 61       	ori	r24, 0x10	; 16
    25d4:	88 b9       	out	0x08, r24	; 8
    25d6:	08 95       	ret
    25d8:	88 b1       	in	r24, 0x08	; 8
    25da:	8f 7e       	andi	r24, 0xEF	; 239
    25dc:	88 b9       	out	0x08, r24	; 8
    25de:	08 95       	ret

000025e0 <TIMER0_init>:
volatile uint8_t flag_1s = 0;


void TIMER0_init(void)
{
	TCCR0A = 0; // Timer counter control Register A - Operao normal da Porta - OC0A desconectado. Verificar DDR Pin relativo ao OC0A
    25e0:	14 bc       	out	0x24, r1	; 36
    //TCCR0A |= (1 << WGM01); // Timer counter control Register A - Operao normal da Porta - OC0A desconectado. Verificar DDR Pin relativo ao OC0A
    TCCR0B = (1 << CS02) | (1 << CS00); // Timer Counter Register B - Clock Select bit - prescaler: 1024
    25e2:	85 e0       	ldi	r24, 0x05	; 5
    25e4:	85 bd       	out	0x25, r24	; 37
    TIMSK0 = (1 << TOIE0); // Timer Counter Interrupt Mask = Overflow interrupt is enabled
    25e6:	81 e0       	ldi	r24, 0x01	; 1
    25e8:	80 93 6e 00 	sts	0x006E, r24	; 0x80006e <__TEXT_REGION_LENGTH__+0x7f806e>
    TCNT0 = 0; // Valor inicial de TCNT0
    25ec:	16 bc       	out	0x26, r1	; 38
	//OCR0A = 61;
    sei(); // Habilita interrupes
    25ee:	78 94       	sei
    25f0:	08 95       	ret

000025f2 <__vector_16>:
	// Neste caso, no h um OCR para comparar, o tempo  o total dos 256 disponveis, ou TOP.
	
}

ISR(TIMER0_OVF_vect) // Interrupo de overflow
{
    25f2:	1f 92       	push	r1
    25f4:	0f 92       	push	r0
    25f6:	0f b6       	in	r0, 0x3f	; 63
    25f8:	0f 92       	push	r0
    25fa:	11 24       	eor	r1, r1
    25fc:	8f 93       	push	r24
    25fe:	9f 93       	push	r25

    counter++;
    2600:	80 91 e9 02 	lds	r24, 0x02E9	; 0x8002e9 <counter>
    2604:	90 91 ea 02 	lds	r25, 0x02EA	; 0x8002ea <counter+0x1>
    2608:	01 96       	adiw	r24, 0x01	; 1
    260a:	90 93 ea 02 	sts	0x02EA, r25	; 0x8002ea <counter+0x1>
    260e:	80 93 e9 02 	sts	0x02E9, r24	; 0x8002e9 <counter>
    if (counter >= 16) {
    2612:	80 91 e9 02 	lds	r24, 0x02E9	; 0x8002e9 <counter>
    2616:	90 91 ea 02 	lds	r25, 0x02EA	; 0x8002ea <counter+0x1>
    261a:	40 97       	sbiw	r24, 0x10	; 16
    261c:	60 f0       	brcs	.+24     	; 0x2636 <__vector_16+0x44>
        flag_500ms = 1;
    261e:	81 e0       	ldi	r24, 0x01	; 1
    2620:	80 93 e7 02 	sts	0x02E7, r24	; 0x8002e7 <flag_500ms>
		counter = 0;
    2624:	10 92 ea 02 	sts	0x02EA, r1	; 0x8002ea <counter+0x1>
    2628:	10 92 e9 02 	sts	0x02E9, r1	; 0x8002e9 <counter>
		counter500ms++;
    262c:	80 91 e8 02 	lds	r24, 0x02E8	; 0x8002e8 <counter500ms>
    2630:	8f 5f       	subi	r24, 0xFF	; 255
    2632:	80 93 e8 02 	sts	0x02E8, r24	; 0x8002e8 <counter500ms>

    }
	if(counter500ms == 4 ) 
    2636:	80 91 e8 02 	lds	r24, 0x02E8	; 0x8002e8 <counter500ms>
    263a:	84 30       	cpi	r24, 0x04	; 4
    263c:	49 f4       	brne	.+18     	; 0x2650 <__vector_16+0x5e>
	{
		PORTD ^= (1<<PD6);
    263e:	9b b1       	in	r25, 0x0b	; 11
    2640:	80 e4       	ldi	r24, 0x40	; 64
    2642:	89 27       	eor	r24, r25
    2644:	8b b9       	out	0x0b, r24	; 11
		flag_1s = 1;
    2646:	81 e0       	ldi	r24, 0x01	; 1
    2648:	80 93 e6 02 	sts	0x02E6, r24	; 0x8002e6 <flag_1s>
		counter500ms = 0;
    264c:	10 92 e8 02 	sts	0x02E8, r1	; 0x8002e8 <counter500ms>
	}
	
	
}
    2650:	9f 91       	pop	r25
    2652:	8f 91       	pop	r24
    2654:	0f 90       	pop	r0
    2656:	0f be       	out	0x3f, r0	; 63
    2658:	0f 90       	pop	r0
    265a:	1f 90       	pop	r1
    265c:	18 95       	reti

0000265e <TIMER0_check1s>:


uint8_t TIMER0_check1s(void)
{
    
	if (flag_1s) {
    265e:	80 91 e6 02 	lds	r24, 0x02E6	; 0x8002e6 <flag_1s>
    2662:	88 23       	and	r24, r24
    2664:	19 f0       	breq	.+6      	; 0x266c <TIMER0_check1s+0xe>
        flag_1s = 0;
    2666:	10 92 e6 02 	sts	0x02E6, r1	; 0x8002e6 <flag_1s>
        return 1;
    266a:	81 e0       	ldi	r24, 0x01	; 1
    }
    return 0;
}
    266c:	08 95       	ret

0000266e <TIMER0_check500ms>:

uint8_t TIMER0_check500ms(void)
{
	    if (flag_500ms) {
    266e:	80 91 e7 02 	lds	r24, 0x02E7	; 0x8002e7 <flag_500ms>
    2672:	88 23       	and	r24, r24
    2674:	19 f0       	breq	.+6      	; 0x267c <TIMER0_check500ms+0xe>
		    flag_500ms = 0;
    2676:	10 92 e7 02 	sts	0x02E7, r1	; 0x8002e7 <flag_500ms>
		    return 1;
    267a:	81 e0       	ldi	r24, 0x01	; 1
	    }
	    return 0;
	
	
}
    267c:	08 95       	ret

0000267e <UART_init>:
#include <avr/io.h>
#include "uart.h"

void UART_init(uint16_t baud)
{
	uint16_t ubrr = F_CPU/16/baud - 1;
    267e:	9c 01       	movw	r18, r24
    2680:	40 e0       	ldi	r20, 0x00	; 0
    2682:	50 e0       	ldi	r21, 0x00	; 0
    2684:	60 e2       	ldi	r22, 0x20	; 32
    2686:	71 ea       	ldi	r23, 0xA1	; 161
    2688:	87 e0       	ldi	r24, 0x07	; 7
    268a:	90 e0       	ldi	r25, 0x00	; 0
    268c:	0e 94 40 15 	call	0x2a80	; 0x2a80 <__udivmodsi4>
    2690:	21 50       	subi	r18, 0x01	; 1
    2692:	31 09       	sbc	r19, r1
	UBRR0H = (ubrr >> 8);
    2694:	30 93 c5 00 	sts	0x00C5, r19	; 0x8000c5 <__TEXT_REGION_LENGTH__+0x7f80c5>
	UBRR0L = ubrr;
    2698:	20 93 c4 00 	sts	0x00C4, r18	; 0x8000c4 <__TEXT_REGION_LENGTH__+0x7f80c4>
	UCSR0B = (1<<RXEN0)|(1<<TXEN0);
    269c:	88 e1       	ldi	r24, 0x18	; 24
    269e:	80 93 c1 00 	sts	0x00C1, r24	; 0x8000c1 <__TEXT_REGION_LENGTH__+0x7f80c1>
	UCSR0C = (1<<UCSZ01)|(1<<UCSZ00);
    26a2:	86 e0       	ldi	r24, 0x06	; 6
    26a4:	80 93 c2 00 	sts	0x00C2, r24	; 0x8000c2 <__TEXT_REGION_LENGTH__+0x7f80c2>
    26a8:	08 95       	ret

000026aa <UART_sendChar>:
}

void UART_sendChar(char c)
{
	while (!(UCSR0A & (1<<UDRE0)));
    26aa:	90 91 c0 00 	lds	r25, 0x00C0	; 0x8000c0 <__TEXT_REGION_LENGTH__+0x7f80c0>
    26ae:	95 ff       	sbrs	r25, 5
    26b0:	fc cf       	rjmp	.-8      	; 0x26aa <UART_sendChar>
	UDR0 = c;
    26b2:	80 93 c6 00 	sts	0x00C6, r24	; 0x8000c6 <__TEXT_REGION_LENGTH__+0x7f80c6>
    26b6:	08 95       	ret

000026b8 <UART_sendString>:
}

void UART_sendString(const char* str)
{
    26b8:	cf 93       	push	r28
    26ba:	df 93       	push	r29
    26bc:	ec 01       	movw	r28, r24
	while (*str)
    26be:	03 c0       	rjmp	.+6      	; 0x26c6 <UART_sendString+0xe>
	UART_sendChar(*str++);
    26c0:	21 96       	adiw	r28, 0x01	; 1
    26c2:	0e 94 55 13 	call	0x26aa	; 0x26aa <UART_sendChar>
	UDR0 = c;
}

void UART_sendString(const char* str)
{
	while (*str)
    26c6:	88 81       	ld	r24, Y
    26c8:	81 11       	cpse	r24, r1
    26ca:	fa cf       	rjmp	.-12     	; 0x26c0 <UART_sendString+0x8>
	UART_sendChar(*str++);
}
    26cc:	df 91       	pop	r29
    26ce:	cf 91       	pop	r28
    26d0:	08 95       	ret

000026d2 <UART_available>:

uint8_t UART_available()
{
	return (UCSR0A & (1<<RXC0));
    26d2:	80 91 c0 00 	lds	r24, 0x00C0	; 0x8000c0 <__TEXT_REGION_LENGTH__+0x7f80c0>
}
    26d6:	80 78       	andi	r24, 0x80	; 128
    26d8:	08 95       	ret

000026da <UART_readChar>:

char UART_readChar()
{
	while (!UART_available());
    26da:	0e 94 69 13 	call	0x26d2	; 0x26d2 <UART_available>
    26de:	88 23       	and	r24, r24
    26e0:	e1 f3       	breq	.-8      	; 0x26da <UART_readChar>
	return UDR0;
    26e2:	80 91 c6 00 	lds	r24, 0x00C6	; 0x8000c6 <__TEXT_REGION_LENGTH__+0x7f80c6>
}
    26e6:	08 95       	ret

000026e8 <__subsf3>:
    26e8:	50 58       	subi	r21, 0x80	; 128

000026ea <__addsf3>:
    26ea:	bb 27       	eor	r27, r27
    26ec:	aa 27       	eor	r26, r26
    26ee:	0e 94 8c 13 	call	0x2718	; 0x2718 <__addsf3x>
    26f2:	0c 94 94 14 	jmp	0x2928	; 0x2928 <__fp_round>
    26f6:	0e 94 86 14 	call	0x290c	; 0x290c <__fp_pscA>
    26fa:	38 f0       	brcs	.+14     	; 0x270a <__addsf3+0x20>
    26fc:	0e 94 8d 14 	call	0x291a	; 0x291a <__fp_pscB>
    2700:	20 f0       	brcs	.+8      	; 0x270a <__addsf3+0x20>
    2702:	39 f4       	brne	.+14     	; 0x2712 <__addsf3+0x28>
    2704:	9f 3f       	cpi	r25, 0xFF	; 255
    2706:	19 f4       	brne	.+6      	; 0x270e <__addsf3+0x24>
    2708:	26 f4       	brtc	.+8      	; 0x2712 <__addsf3+0x28>
    270a:	0c 94 83 14 	jmp	0x2906	; 0x2906 <__fp_nan>
    270e:	0e f4       	brtc	.+2      	; 0x2712 <__addsf3+0x28>
    2710:	e0 95       	com	r30
    2712:	e7 fb       	bst	r30, 7
    2714:	0c 94 7d 14 	jmp	0x28fa	; 0x28fa <__fp_inf>

00002718 <__addsf3x>:
    2718:	e9 2f       	mov	r30, r25
    271a:	0e 94 a5 14 	call	0x294a	; 0x294a <__fp_split3>
    271e:	58 f3       	brcs	.-42     	; 0x26f6 <__addsf3+0xc>
    2720:	ba 17       	cp	r27, r26
    2722:	62 07       	cpc	r22, r18
    2724:	73 07       	cpc	r23, r19
    2726:	84 07       	cpc	r24, r20
    2728:	95 07       	cpc	r25, r21
    272a:	20 f0       	brcs	.+8      	; 0x2734 <__addsf3x+0x1c>
    272c:	79 f4       	brne	.+30     	; 0x274c <__addsf3x+0x34>
    272e:	a6 f5       	brtc	.+104    	; 0x2798 <__addsf3x+0x80>
    2730:	0c 94 c7 14 	jmp	0x298e	; 0x298e <__fp_zero>
    2734:	0e f4       	brtc	.+2      	; 0x2738 <__addsf3x+0x20>
    2736:	e0 95       	com	r30
    2738:	0b 2e       	mov	r0, r27
    273a:	ba 2f       	mov	r27, r26
    273c:	a0 2d       	mov	r26, r0
    273e:	0b 01       	movw	r0, r22
    2740:	b9 01       	movw	r22, r18
    2742:	90 01       	movw	r18, r0
    2744:	0c 01       	movw	r0, r24
    2746:	ca 01       	movw	r24, r20
    2748:	a0 01       	movw	r20, r0
    274a:	11 24       	eor	r1, r1
    274c:	ff 27       	eor	r31, r31
    274e:	59 1b       	sub	r21, r25
    2750:	99 f0       	breq	.+38     	; 0x2778 <__addsf3x+0x60>
    2752:	59 3f       	cpi	r21, 0xF9	; 249
    2754:	50 f4       	brcc	.+20     	; 0x276a <__addsf3x+0x52>
    2756:	50 3e       	cpi	r21, 0xE0	; 224
    2758:	68 f1       	brcs	.+90     	; 0x27b4 <__addsf3x+0x9c>
    275a:	1a 16       	cp	r1, r26
    275c:	f0 40       	sbci	r31, 0x00	; 0
    275e:	a2 2f       	mov	r26, r18
    2760:	23 2f       	mov	r18, r19
    2762:	34 2f       	mov	r19, r20
    2764:	44 27       	eor	r20, r20
    2766:	58 5f       	subi	r21, 0xF8	; 248
    2768:	f3 cf       	rjmp	.-26     	; 0x2750 <__addsf3x+0x38>
    276a:	46 95       	lsr	r20
    276c:	37 95       	ror	r19
    276e:	27 95       	ror	r18
    2770:	a7 95       	ror	r26
    2772:	f0 40       	sbci	r31, 0x00	; 0
    2774:	53 95       	inc	r21
    2776:	c9 f7       	brne	.-14     	; 0x276a <__addsf3x+0x52>
    2778:	7e f4       	brtc	.+30     	; 0x2798 <__addsf3x+0x80>
    277a:	1f 16       	cp	r1, r31
    277c:	ba 0b       	sbc	r27, r26
    277e:	62 0b       	sbc	r22, r18
    2780:	73 0b       	sbc	r23, r19
    2782:	84 0b       	sbc	r24, r20
    2784:	ba f0       	brmi	.+46     	; 0x27b4 <__addsf3x+0x9c>
    2786:	91 50       	subi	r25, 0x01	; 1
    2788:	a1 f0       	breq	.+40     	; 0x27b2 <__addsf3x+0x9a>
    278a:	ff 0f       	add	r31, r31
    278c:	bb 1f       	adc	r27, r27
    278e:	66 1f       	adc	r22, r22
    2790:	77 1f       	adc	r23, r23
    2792:	88 1f       	adc	r24, r24
    2794:	c2 f7       	brpl	.-16     	; 0x2786 <__addsf3x+0x6e>
    2796:	0e c0       	rjmp	.+28     	; 0x27b4 <__addsf3x+0x9c>
    2798:	ba 0f       	add	r27, r26
    279a:	62 1f       	adc	r22, r18
    279c:	73 1f       	adc	r23, r19
    279e:	84 1f       	adc	r24, r20
    27a0:	48 f4       	brcc	.+18     	; 0x27b4 <__addsf3x+0x9c>
    27a2:	87 95       	ror	r24
    27a4:	77 95       	ror	r23
    27a6:	67 95       	ror	r22
    27a8:	b7 95       	ror	r27
    27aa:	f7 95       	ror	r31
    27ac:	9e 3f       	cpi	r25, 0xFE	; 254
    27ae:	08 f0       	brcs	.+2      	; 0x27b2 <__addsf3x+0x9a>
    27b0:	b0 cf       	rjmp	.-160    	; 0x2712 <__addsf3+0x28>
    27b2:	93 95       	inc	r25
    27b4:	88 0f       	add	r24, r24
    27b6:	08 f0       	brcs	.+2      	; 0x27ba <__addsf3x+0xa2>
    27b8:	99 27       	eor	r25, r25
    27ba:	ee 0f       	add	r30, r30
    27bc:	97 95       	ror	r25
    27be:	87 95       	ror	r24
    27c0:	08 95       	ret

000027c2 <__cmpsf2>:
    27c2:	0e 94 59 14 	call	0x28b2	; 0x28b2 <__fp_cmp>
    27c6:	08 f4       	brcc	.+2      	; 0x27ca <__cmpsf2+0x8>
    27c8:	81 e0       	ldi	r24, 0x01	; 1
    27ca:	08 95       	ret

000027cc <__fixsfsi>:
    27cc:	0e 94 ed 13 	call	0x27da	; 0x27da <__fixunssfsi>
    27d0:	68 94       	set
    27d2:	b1 11       	cpse	r27, r1
    27d4:	0c 94 c8 14 	jmp	0x2990	; 0x2990 <__fp_szero>
    27d8:	08 95       	ret

000027da <__fixunssfsi>:
    27da:	0e 94 ad 14 	call	0x295a	; 0x295a <__fp_splitA>
    27de:	88 f0       	brcs	.+34     	; 0x2802 <__fixunssfsi+0x28>
    27e0:	9f 57       	subi	r25, 0x7F	; 127
    27e2:	98 f0       	brcs	.+38     	; 0x280a <__fixunssfsi+0x30>
    27e4:	b9 2f       	mov	r27, r25
    27e6:	99 27       	eor	r25, r25
    27e8:	b7 51       	subi	r27, 0x17	; 23
    27ea:	b0 f0       	brcs	.+44     	; 0x2818 <__fixunssfsi+0x3e>
    27ec:	e1 f0       	breq	.+56     	; 0x2826 <__fixunssfsi+0x4c>
    27ee:	66 0f       	add	r22, r22
    27f0:	77 1f       	adc	r23, r23
    27f2:	88 1f       	adc	r24, r24
    27f4:	99 1f       	adc	r25, r25
    27f6:	1a f0       	brmi	.+6      	; 0x27fe <__fixunssfsi+0x24>
    27f8:	ba 95       	dec	r27
    27fa:	c9 f7       	brne	.-14     	; 0x27ee <__fixunssfsi+0x14>
    27fc:	14 c0       	rjmp	.+40     	; 0x2826 <__fixunssfsi+0x4c>
    27fe:	b1 30       	cpi	r27, 0x01	; 1
    2800:	91 f0       	breq	.+36     	; 0x2826 <__fixunssfsi+0x4c>
    2802:	0e 94 c7 14 	call	0x298e	; 0x298e <__fp_zero>
    2806:	b1 e0       	ldi	r27, 0x01	; 1
    2808:	08 95       	ret
    280a:	0c 94 c7 14 	jmp	0x298e	; 0x298e <__fp_zero>
    280e:	67 2f       	mov	r22, r23
    2810:	78 2f       	mov	r23, r24
    2812:	88 27       	eor	r24, r24
    2814:	b8 5f       	subi	r27, 0xF8	; 248
    2816:	39 f0       	breq	.+14     	; 0x2826 <__fixunssfsi+0x4c>
    2818:	b9 3f       	cpi	r27, 0xF9	; 249
    281a:	cc f3       	brlt	.-14     	; 0x280e <__fixunssfsi+0x34>
    281c:	86 95       	lsr	r24
    281e:	77 95       	ror	r23
    2820:	67 95       	ror	r22
    2822:	b3 95       	inc	r27
    2824:	d9 f7       	brne	.-10     	; 0x281c <__fixunssfsi+0x42>
    2826:	3e f4       	brtc	.+14     	; 0x2836 <__fixunssfsi+0x5c>
    2828:	90 95       	com	r25
    282a:	80 95       	com	r24
    282c:	70 95       	com	r23
    282e:	61 95       	neg	r22
    2830:	7f 4f       	sbci	r23, 0xFF	; 255
    2832:	8f 4f       	sbci	r24, 0xFF	; 255
    2834:	9f 4f       	sbci	r25, 0xFF	; 255
    2836:	08 95       	ret

00002838 <__floatunsisf>:
    2838:	e8 94       	clt
    283a:	09 c0       	rjmp	.+18     	; 0x284e <__floatsisf+0x12>

0000283c <__floatsisf>:
    283c:	97 fb       	bst	r25, 7
    283e:	3e f4       	brtc	.+14     	; 0x284e <__floatsisf+0x12>
    2840:	90 95       	com	r25
    2842:	80 95       	com	r24
    2844:	70 95       	com	r23
    2846:	61 95       	neg	r22
    2848:	7f 4f       	sbci	r23, 0xFF	; 255
    284a:	8f 4f       	sbci	r24, 0xFF	; 255
    284c:	9f 4f       	sbci	r25, 0xFF	; 255
    284e:	99 23       	and	r25, r25
    2850:	a9 f0       	breq	.+42     	; 0x287c <__floatsisf+0x40>
    2852:	f9 2f       	mov	r31, r25
    2854:	96 e9       	ldi	r25, 0x96	; 150
    2856:	bb 27       	eor	r27, r27
    2858:	93 95       	inc	r25
    285a:	f6 95       	lsr	r31
    285c:	87 95       	ror	r24
    285e:	77 95       	ror	r23
    2860:	67 95       	ror	r22
    2862:	b7 95       	ror	r27
    2864:	f1 11       	cpse	r31, r1
    2866:	f8 cf       	rjmp	.-16     	; 0x2858 <__floatsisf+0x1c>
    2868:	fa f4       	brpl	.+62     	; 0x28a8 <__floatsisf+0x6c>
    286a:	bb 0f       	add	r27, r27
    286c:	11 f4       	brne	.+4      	; 0x2872 <__floatsisf+0x36>
    286e:	60 ff       	sbrs	r22, 0
    2870:	1b c0       	rjmp	.+54     	; 0x28a8 <__floatsisf+0x6c>
    2872:	6f 5f       	subi	r22, 0xFF	; 255
    2874:	7f 4f       	sbci	r23, 0xFF	; 255
    2876:	8f 4f       	sbci	r24, 0xFF	; 255
    2878:	9f 4f       	sbci	r25, 0xFF	; 255
    287a:	16 c0       	rjmp	.+44     	; 0x28a8 <__floatsisf+0x6c>
    287c:	88 23       	and	r24, r24
    287e:	11 f0       	breq	.+4      	; 0x2884 <__floatsisf+0x48>
    2880:	96 e9       	ldi	r25, 0x96	; 150
    2882:	11 c0       	rjmp	.+34     	; 0x28a6 <__floatsisf+0x6a>
    2884:	77 23       	and	r23, r23
    2886:	21 f0       	breq	.+8      	; 0x2890 <__floatsisf+0x54>
    2888:	9e e8       	ldi	r25, 0x8E	; 142
    288a:	87 2f       	mov	r24, r23
    288c:	76 2f       	mov	r23, r22
    288e:	05 c0       	rjmp	.+10     	; 0x289a <__floatsisf+0x5e>
    2890:	66 23       	and	r22, r22
    2892:	71 f0       	breq	.+28     	; 0x28b0 <__floatsisf+0x74>
    2894:	96 e8       	ldi	r25, 0x86	; 134
    2896:	86 2f       	mov	r24, r22
    2898:	70 e0       	ldi	r23, 0x00	; 0
    289a:	60 e0       	ldi	r22, 0x00	; 0
    289c:	2a f0       	brmi	.+10     	; 0x28a8 <__floatsisf+0x6c>
    289e:	9a 95       	dec	r25
    28a0:	66 0f       	add	r22, r22
    28a2:	77 1f       	adc	r23, r23
    28a4:	88 1f       	adc	r24, r24
    28a6:	da f7       	brpl	.-10     	; 0x289e <__floatsisf+0x62>
    28a8:	88 0f       	add	r24, r24
    28aa:	96 95       	lsr	r25
    28ac:	87 95       	ror	r24
    28ae:	97 f9       	bld	r25, 7
    28b0:	08 95       	ret

000028b2 <__fp_cmp>:
    28b2:	99 0f       	add	r25, r25
    28b4:	00 08       	sbc	r0, r0
    28b6:	55 0f       	add	r21, r21
    28b8:	aa 0b       	sbc	r26, r26
    28ba:	e0 e8       	ldi	r30, 0x80	; 128
    28bc:	fe ef       	ldi	r31, 0xFE	; 254
    28be:	16 16       	cp	r1, r22
    28c0:	17 06       	cpc	r1, r23
    28c2:	e8 07       	cpc	r30, r24
    28c4:	f9 07       	cpc	r31, r25
    28c6:	c0 f0       	brcs	.+48     	; 0x28f8 <__fp_cmp+0x46>
    28c8:	12 16       	cp	r1, r18
    28ca:	13 06       	cpc	r1, r19
    28cc:	e4 07       	cpc	r30, r20
    28ce:	f5 07       	cpc	r31, r21
    28d0:	98 f0       	brcs	.+38     	; 0x28f8 <__fp_cmp+0x46>
    28d2:	62 1b       	sub	r22, r18
    28d4:	73 0b       	sbc	r23, r19
    28d6:	84 0b       	sbc	r24, r20
    28d8:	95 0b       	sbc	r25, r21
    28da:	39 f4       	brne	.+14     	; 0x28ea <__fp_cmp+0x38>
    28dc:	0a 26       	eor	r0, r26
    28de:	61 f0       	breq	.+24     	; 0x28f8 <__fp_cmp+0x46>
    28e0:	23 2b       	or	r18, r19
    28e2:	24 2b       	or	r18, r20
    28e4:	25 2b       	or	r18, r21
    28e6:	21 f4       	brne	.+8      	; 0x28f0 <__fp_cmp+0x3e>
    28e8:	08 95       	ret
    28ea:	0a 26       	eor	r0, r26
    28ec:	09 f4       	brne	.+2      	; 0x28f0 <__fp_cmp+0x3e>
    28ee:	a1 40       	sbci	r26, 0x01	; 1
    28f0:	a6 95       	lsr	r26
    28f2:	8f ef       	ldi	r24, 0xFF	; 255
    28f4:	81 1d       	adc	r24, r1
    28f6:	81 1d       	adc	r24, r1
    28f8:	08 95       	ret

000028fa <__fp_inf>:
    28fa:	97 f9       	bld	r25, 7
    28fc:	9f 67       	ori	r25, 0x7F	; 127
    28fe:	80 e8       	ldi	r24, 0x80	; 128
    2900:	70 e0       	ldi	r23, 0x00	; 0
    2902:	60 e0       	ldi	r22, 0x00	; 0
    2904:	08 95       	ret

00002906 <__fp_nan>:
    2906:	9f ef       	ldi	r25, 0xFF	; 255
    2908:	80 ec       	ldi	r24, 0xC0	; 192
    290a:	08 95       	ret

0000290c <__fp_pscA>:
    290c:	00 24       	eor	r0, r0
    290e:	0a 94       	dec	r0
    2910:	16 16       	cp	r1, r22
    2912:	17 06       	cpc	r1, r23
    2914:	18 06       	cpc	r1, r24
    2916:	09 06       	cpc	r0, r25
    2918:	08 95       	ret

0000291a <__fp_pscB>:
    291a:	00 24       	eor	r0, r0
    291c:	0a 94       	dec	r0
    291e:	12 16       	cp	r1, r18
    2920:	13 06       	cpc	r1, r19
    2922:	14 06       	cpc	r1, r20
    2924:	05 06       	cpc	r0, r21
    2926:	08 95       	ret

00002928 <__fp_round>:
    2928:	09 2e       	mov	r0, r25
    292a:	03 94       	inc	r0
    292c:	00 0c       	add	r0, r0
    292e:	11 f4       	brne	.+4      	; 0x2934 <__fp_round+0xc>
    2930:	88 23       	and	r24, r24
    2932:	52 f0       	brmi	.+20     	; 0x2948 <__fp_round+0x20>
    2934:	bb 0f       	add	r27, r27
    2936:	40 f4       	brcc	.+16     	; 0x2948 <__fp_round+0x20>
    2938:	bf 2b       	or	r27, r31
    293a:	11 f4       	brne	.+4      	; 0x2940 <__fp_round+0x18>
    293c:	60 ff       	sbrs	r22, 0
    293e:	04 c0       	rjmp	.+8      	; 0x2948 <__fp_round+0x20>
    2940:	6f 5f       	subi	r22, 0xFF	; 255
    2942:	7f 4f       	sbci	r23, 0xFF	; 255
    2944:	8f 4f       	sbci	r24, 0xFF	; 255
    2946:	9f 4f       	sbci	r25, 0xFF	; 255
    2948:	08 95       	ret

0000294a <__fp_split3>:
    294a:	57 fd       	sbrc	r21, 7
    294c:	90 58       	subi	r25, 0x80	; 128
    294e:	44 0f       	add	r20, r20
    2950:	55 1f       	adc	r21, r21
    2952:	59 f0       	breq	.+22     	; 0x296a <__fp_splitA+0x10>
    2954:	5f 3f       	cpi	r21, 0xFF	; 255
    2956:	71 f0       	breq	.+28     	; 0x2974 <__fp_splitA+0x1a>
    2958:	47 95       	ror	r20

0000295a <__fp_splitA>:
    295a:	88 0f       	add	r24, r24
    295c:	97 fb       	bst	r25, 7
    295e:	99 1f       	adc	r25, r25
    2960:	61 f0       	breq	.+24     	; 0x297a <__fp_splitA+0x20>
    2962:	9f 3f       	cpi	r25, 0xFF	; 255
    2964:	79 f0       	breq	.+30     	; 0x2984 <__fp_splitA+0x2a>
    2966:	87 95       	ror	r24
    2968:	08 95       	ret
    296a:	12 16       	cp	r1, r18
    296c:	13 06       	cpc	r1, r19
    296e:	14 06       	cpc	r1, r20
    2970:	55 1f       	adc	r21, r21
    2972:	f2 cf       	rjmp	.-28     	; 0x2958 <__fp_split3+0xe>
    2974:	46 95       	lsr	r20
    2976:	f1 df       	rcall	.-30     	; 0x295a <__fp_splitA>
    2978:	08 c0       	rjmp	.+16     	; 0x298a <__fp_splitA+0x30>
    297a:	16 16       	cp	r1, r22
    297c:	17 06       	cpc	r1, r23
    297e:	18 06       	cpc	r1, r24
    2980:	99 1f       	adc	r25, r25
    2982:	f1 cf       	rjmp	.-30     	; 0x2966 <__fp_splitA+0xc>
    2984:	86 95       	lsr	r24
    2986:	71 05       	cpc	r23, r1
    2988:	61 05       	cpc	r22, r1
    298a:	08 94       	sec
    298c:	08 95       	ret

0000298e <__fp_zero>:
    298e:	e8 94       	clt

00002990 <__fp_szero>:
    2990:	bb 27       	eor	r27, r27
    2992:	66 27       	eor	r22, r22
    2994:	77 27       	eor	r23, r23
    2996:	cb 01       	movw	r24, r22
    2998:	97 f9       	bld	r25, 7
    299a:	08 95       	ret

0000299c <__gesf2>:
    299c:	0e 94 59 14 	call	0x28b2	; 0x28b2 <__fp_cmp>
    29a0:	08 f4       	brcc	.+2      	; 0x29a4 <__gesf2+0x8>
    29a2:	8f ef       	ldi	r24, 0xFF	; 255
    29a4:	08 95       	ret

000029a6 <__mulsf3>:
    29a6:	0e 94 e6 14 	call	0x29cc	; 0x29cc <__mulsf3x>
    29aa:	0c 94 94 14 	jmp	0x2928	; 0x2928 <__fp_round>
    29ae:	0e 94 86 14 	call	0x290c	; 0x290c <__fp_pscA>
    29b2:	38 f0       	brcs	.+14     	; 0x29c2 <__mulsf3+0x1c>
    29b4:	0e 94 8d 14 	call	0x291a	; 0x291a <__fp_pscB>
    29b8:	20 f0       	brcs	.+8      	; 0x29c2 <__mulsf3+0x1c>
    29ba:	95 23       	and	r25, r21
    29bc:	11 f0       	breq	.+4      	; 0x29c2 <__mulsf3+0x1c>
    29be:	0c 94 7d 14 	jmp	0x28fa	; 0x28fa <__fp_inf>
    29c2:	0c 94 83 14 	jmp	0x2906	; 0x2906 <__fp_nan>
    29c6:	11 24       	eor	r1, r1
    29c8:	0c 94 c8 14 	jmp	0x2990	; 0x2990 <__fp_szero>

000029cc <__mulsf3x>:
    29cc:	0e 94 a5 14 	call	0x294a	; 0x294a <__fp_split3>
    29d0:	70 f3       	brcs	.-36     	; 0x29ae <__mulsf3+0x8>

000029d2 <__mulsf3_pse>:
    29d2:	95 9f       	mul	r25, r21
    29d4:	c1 f3       	breq	.-16     	; 0x29c6 <__mulsf3+0x20>
    29d6:	95 0f       	add	r25, r21
    29d8:	50 e0       	ldi	r21, 0x00	; 0
    29da:	55 1f       	adc	r21, r21
    29dc:	62 9f       	mul	r22, r18
    29de:	f0 01       	movw	r30, r0
    29e0:	72 9f       	mul	r23, r18
    29e2:	bb 27       	eor	r27, r27
    29e4:	f0 0d       	add	r31, r0
    29e6:	b1 1d       	adc	r27, r1
    29e8:	63 9f       	mul	r22, r19
    29ea:	aa 27       	eor	r26, r26
    29ec:	f0 0d       	add	r31, r0
    29ee:	b1 1d       	adc	r27, r1
    29f0:	aa 1f       	adc	r26, r26
    29f2:	64 9f       	mul	r22, r20
    29f4:	66 27       	eor	r22, r22
    29f6:	b0 0d       	add	r27, r0
    29f8:	a1 1d       	adc	r26, r1
    29fa:	66 1f       	adc	r22, r22
    29fc:	82 9f       	mul	r24, r18
    29fe:	22 27       	eor	r18, r18
    2a00:	b0 0d       	add	r27, r0
    2a02:	a1 1d       	adc	r26, r1
    2a04:	62 1f       	adc	r22, r18
    2a06:	73 9f       	mul	r23, r19
    2a08:	b0 0d       	add	r27, r0
    2a0a:	a1 1d       	adc	r26, r1
    2a0c:	62 1f       	adc	r22, r18
    2a0e:	83 9f       	mul	r24, r19
    2a10:	a0 0d       	add	r26, r0
    2a12:	61 1d       	adc	r22, r1
    2a14:	22 1f       	adc	r18, r18
    2a16:	74 9f       	mul	r23, r20
    2a18:	33 27       	eor	r19, r19
    2a1a:	a0 0d       	add	r26, r0
    2a1c:	61 1d       	adc	r22, r1
    2a1e:	23 1f       	adc	r18, r19
    2a20:	84 9f       	mul	r24, r20
    2a22:	60 0d       	add	r22, r0
    2a24:	21 1d       	adc	r18, r1
    2a26:	82 2f       	mov	r24, r18
    2a28:	76 2f       	mov	r23, r22
    2a2a:	6a 2f       	mov	r22, r26
    2a2c:	11 24       	eor	r1, r1
    2a2e:	9f 57       	subi	r25, 0x7F	; 127
    2a30:	50 40       	sbci	r21, 0x00	; 0
    2a32:	9a f0       	brmi	.+38     	; 0x2a5a <__mulsf3_pse+0x88>
    2a34:	f1 f0       	breq	.+60     	; 0x2a72 <__mulsf3_pse+0xa0>
    2a36:	88 23       	and	r24, r24
    2a38:	4a f0       	brmi	.+18     	; 0x2a4c <__mulsf3_pse+0x7a>
    2a3a:	ee 0f       	add	r30, r30
    2a3c:	ff 1f       	adc	r31, r31
    2a3e:	bb 1f       	adc	r27, r27
    2a40:	66 1f       	adc	r22, r22
    2a42:	77 1f       	adc	r23, r23
    2a44:	88 1f       	adc	r24, r24
    2a46:	91 50       	subi	r25, 0x01	; 1
    2a48:	50 40       	sbci	r21, 0x00	; 0
    2a4a:	a9 f7       	brne	.-22     	; 0x2a36 <__mulsf3_pse+0x64>
    2a4c:	9e 3f       	cpi	r25, 0xFE	; 254
    2a4e:	51 05       	cpc	r21, r1
    2a50:	80 f0       	brcs	.+32     	; 0x2a72 <__mulsf3_pse+0xa0>
    2a52:	0c 94 7d 14 	jmp	0x28fa	; 0x28fa <__fp_inf>
    2a56:	0c 94 c8 14 	jmp	0x2990	; 0x2990 <__fp_szero>
    2a5a:	5f 3f       	cpi	r21, 0xFF	; 255
    2a5c:	e4 f3       	brlt	.-8      	; 0x2a56 <__mulsf3_pse+0x84>
    2a5e:	98 3e       	cpi	r25, 0xE8	; 232
    2a60:	d4 f3       	brlt	.-12     	; 0x2a56 <__mulsf3_pse+0x84>
    2a62:	86 95       	lsr	r24
    2a64:	77 95       	ror	r23
    2a66:	67 95       	ror	r22
    2a68:	b7 95       	ror	r27
    2a6a:	f7 95       	ror	r31
    2a6c:	e7 95       	ror	r30
    2a6e:	9f 5f       	subi	r25, 0xFF	; 255
    2a70:	c1 f7       	brne	.-16     	; 0x2a62 <__mulsf3_pse+0x90>
    2a72:	fe 2b       	or	r31, r30
    2a74:	88 0f       	add	r24, r24
    2a76:	91 1d       	adc	r25, r1
    2a78:	96 95       	lsr	r25
    2a7a:	87 95       	ror	r24
    2a7c:	97 f9       	bld	r25, 7
    2a7e:	08 95       	ret

00002a80 <__udivmodsi4>:
    2a80:	a1 e2       	ldi	r26, 0x21	; 33
    2a82:	1a 2e       	mov	r1, r26
    2a84:	aa 1b       	sub	r26, r26
    2a86:	bb 1b       	sub	r27, r27
    2a88:	fd 01       	movw	r30, r26
    2a8a:	0d c0       	rjmp	.+26     	; 0x2aa6 <__udivmodsi4_ep>

00002a8c <__udivmodsi4_loop>:
    2a8c:	aa 1f       	adc	r26, r26
    2a8e:	bb 1f       	adc	r27, r27
    2a90:	ee 1f       	adc	r30, r30
    2a92:	ff 1f       	adc	r31, r31
    2a94:	a2 17       	cp	r26, r18
    2a96:	b3 07       	cpc	r27, r19
    2a98:	e4 07       	cpc	r30, r20
    2a9a:	f5 07       	cpc	r31, r21
    2a9c:	20 f0       	brcs	.+8      	; 0x2aa6 <__udivmodsi4_ep>
    2a9e:	a2 1b       	sub	r26, r18
    2aa0:	b3 0b       	sbc	r27, r19
    2aa2:	e4 0b       	sbc	r30, r20
    2aa4:	f5 0b       	sbc	r31, r21

00002aa6 <__udivmodsi4_ep>:
    2aa6:	66 1f       	adc	r22, r22
    2aa8:	77 1f       	adc	r23, r23
    2aaa:	88 1f       	adc	r24, r24
    2aac:	99 1f       	adc	r25, r25
    2aae:	1a 94       	dec	r1
    2ab0:	69 f7       	brne	.-38     	; 0x2a8c <__udivmodsi4_loop>
    2ab2:	60 95       	com	r22
    2ab4:	70 95       	com	r23
    2ab6:	80 95       	com	r24
    2ab8:	90 95       	com	r25
    2aba:	9b 01       	movw	r18, r22
    2abc:	ac 01       	movw	r20, r24
    2abe:	bd 01       	movw	r22, r26
    2ac0:	cf 01       	movw	r24, r30
    2ac2:	08 95       	ret

00002ac4 <__tablejump2__>:
    2ac4:	ee 0f       	add	r30, r30
    2ac6:	ff 1f       	adc	r31, r31
    2ac8:	05 90       	lpm	r0, Z+
    2aca:	f4 91       	lpm	r31, Z
    2acc:	e0 2d       	mov	r30, r0
    2ace:	09 94       	ijmp

00002ad0 <malloc>:
    2ad0:	0f 93       	push	r16
    2ad2:	1f 93       	push	r17
    2ad4:	cf 93       	push	r28
    2ad6:	df 93       	push	r29
    2ad8:	82 30       	cpi	r24, 0x02	; 2
    2ada:	91 05       	cpc	r25, r1
    2adc:	10 f4       	brcc	.+4      	; 0x2ae2 <malloc+0x12>
    2ade:	82 e0       	ldi	r24, 0x02	; 2
    2ae0:	90 e0       	ldi	r25, 0x00	; 0
    2ae2:	e0 91 ed 02 	lds	r30, 0x02ED	; 0x8002ed <__flp>
    2ae6:	f0 91 ee 02 	lds	r31, 0x02EE	; 0x8002ee <__flp+0x1>
    2aea:	20 e0       	ldi	r18, 0x00	; 0
    2aec:	30 e0       	ldi	r19, 0x00	; 0
    2aee:	a0 e0       	ldi	r26, 0x00	; 0
    2af0:	b0 e0       	ldi	r27, 0x00	; 0
    2af2:	30 97       	sbiw	r30, 0x00	; 0
    2af4:	19 f1       	breq	.+70     	; 0x2b3c <malloc+0x6c>
    2af6:	40 81       	ld	r20, Z
    2af8:	51 81       	ldd	r21, Z+1	; 0x01
    2afa:	02 81       	ldd	r16, Z+2	; 0x02
    2afc:	13 81       	ldd	r17, Z+3	; 0x03
    2afe:	48 17       	cp	r20, r24
    2b00:	59 07       	cpc	r21, r25
    2b02:	c8 f0       	brcs	.+50     	; 0x2b36 <malloc+0x66>
    2b04:	84 17       	cp	r24, r20
    2b06:	95 07       	cpc	r25, r21
    2b08:	69 f4       	brne	.+26     	; 0x2b24 <malloc+0x54>
    2b0a:	10 97       	sbiw	r26, 0x00	; 0
    2b0c:	31 f0       	breq	.+12     	; 0x2b1a <malloc+0x4a>
    2b0e:	12 96       	adiw	r26, 0x02	; 2
    2b10:	0c 93       	st	X, r16
    2b12:	12 97       	sbiw	r26, 0x02	; 2
    2b14:	13 96       	adiw	r26, 0x03	; 3
    2b16:	1c 93       	st	X, r17
    2b18:	27 c0       	rjmp	.+78     	; 0x2b68 <malloc+0x98>
    2b1a:	00 93 ed 02 	sts	0x02ED, r16	; 0x8002ed <__flp>
    2b1e:	10 93 ee 02 	sts	0x02EE, r17	; 0x8002ee <__flp+0x1>
    2b22:	22 c0       	rjmp	.+68     	; 0x2b68 <malloc+0x98>
    2b24:	21 15       	cp	r18, r1
    2b26:	31 05       	cpc	r19, r1
    2b28:	19 f0       	breq	.+6      	; 0x2b30 <malloc+0x60>
    2b2a:	42 17       	cp	r20, r18
    2b2c:	53 07       	cpc	r21, r19
    2b2e:	18 f4       	brcc	.+6      	; 0x2b36 <malloc+0x66>
    2b30:	9a 01       	movw	r18, r20
    2b32:	bd 01       	movw	r22, r26
    2b34:	ef 01       	movw	r28, r30
    2b36:	df 01       	movw	r26, r30
    2b38:	f8 01       	movw	r30, r16
    2b3a:	db cf       	rjmp	.-74     	; 0x2af2 <malloc+0x22>
    2b3c:	21 15       	cp	r18, r1
    2b3e:	31 05       	cpc	r19, r1
    2b40:	f9 f0       	breq	.+62     	; 0x2b80 <malloc+0xb0>
    2b42:	28 1b       	sub	r18, r24
    2b44:	39 0b       	sbc	r19, r25
    2b46:	24 30       	cpi	r18, 0x04	; 4
    2b48:	31 05       	cpc	r19, r1
    2b4a:	80 f4       	brcc	.+32     	; 0x2b6c <malloc+0x9c>
    2b4c:	8a 81       	ldd	r24, Y+2	; 0x02
    2b4e:	9b 81       	ldd	r25, Y+3	; 0x03
    2b50:	61 15       	cp	r22, r1
    2b52:	71 05       	cpc	r23, r1
    2b54:	21 f0       	breq	.+8      	; 0x2b5e <malloc+0x8e>
    2b56:	fb 01       	movw	r30, r22
    2b58:	93 83       	std	Z+3, r25	; 0x03
    2b5a:	82 83       	std	Z+2, r24	; 0x02
    2b5c:	04 c0       	rjmp	.+8      	; 0x2b66 <malloc+0x96>
    2b5e:	90 93 ee 02 	sts	0x02EE, r25	; 0x8002ee <__flp+0x1>
    2b62:	80 93 ed 02 	sts	0x02ED, r24	; 0x8002ed <__flp>
    2b66:	fe 01       	movw	r30, r28
    2b68:	32 96       	adiw	r30, 0x02	; 2
    2b6a:	44 c0       	rjmp	.+136    	; 0x2bf4 <malloc+0x124>
    2b6c:	fe 01       	movw	r30, r28
    2b6e:	e2 0f       	add	r30, r18
    2b70:	f3 1f       	adc	r31, r19
    2b72:	81 93       	st	Z+, r24
    2b74:	91 93       	st	Z+, r25
    2b76:	22 50       	subi	r18, 0x02	; 2
    2b78:	31 09       	sbc	r19, r1
    2b7a:	39 83       	std	Y+1, r19	; 0x01
    2b7c:	28 83       	st	Y, r18
    2b7e:	3a c0       	rjmp	.+116    	; 0x2bf4 <malloc+0x124>
    2b80:	20 91 eb 02 	lds	r18, 0x02EB	; 0x8002eb <__brkval>
    2b84:	30 91 ec 02 	lds	r19, 0x02EC	; 0x8002ec <__brkval+0x1>
    2b88:	23 2b       	or	r18, r19
    2b8a:	41 f4       	brne	.+16     	; 0x2b9c <malloc+0xcc>
    2b8c:	20 91 02 01 	lds	r18, 0x0102	; 0x800102 <__malloc_heap_start>
    2b90:	30 91 03 01 	lds	r19, 0x0103	; 0x800103 <__malloc_heap_start+0x1>
    2b94:	30 93 ec 02 	sts	0x02EC, r19	; 0x8002ec <__brkval+0x1>
    2b98:	20 93 eb 02 	sts	0x02EB, r18	; 0x8002eb <__brkval>
    2b9c:	20 91 00 01 	lds	r18, 0x0100	; 0x800100 <__DATA_REGION_ORIGIN__>
    2ba0:	30 91 01 01 	lds	r19, 0x0101	; 0x800101 <__DATA_REGION_ORIGIN__+0x1>
    2ba4:	21 15       	cp	r18, r1
    2ba6:	31 05       	cpc	r19, r1
    2ba8:	41 f4       	brne	.+16     	; 0x2bba <malloc+0xea>
    2baa:	2d b7       	in	r18, 0x3d	; 61
    2bac:	3e b7       	in	r19, 0x3e	; 62
    2bae:	40 91 04 01 	lds	r20, 0x0104	; 0x800104 <__malloc_margin>
    2bb2:	50 91 05 01 	lds	r21, 0x0105	; 0x800105 <__malloc_margin+0x1>
    2bb6:	24 1b       	sub	r18, r20
    2bb8:	35 0b       	sbc	r19, r21
    2bba:	e0 91 eb 02 	lds	r30, 0x02EB	; 0x8002eb <__brkval>
    2bbe:	f0 91 ec 02 	lds	r31, 0x02EC	; 0x8002ec <__brkval+0x1>
    2bc2:	e2 17       	cp	r30, r18
    2bc4:	f3 07       	cpc	r31, r19
    2bc6:	a0 f4       	brcc	.+40     	; 0x2bf0 <malloc+0x120>
    2bc8:	2e 1b       	sub	r18, r30
    2bca:	3f 0b       	sbc	r19, r31
    2bcc:	28 17       	cp	r18, r24
    2bce:	39 07       	cpc	r19, r25
    2bd0:	78 f0       	brcs	.+30     	; 0x2bf0 <malloc+0x120>
    2bd2:	ac 01       	movw	r20, r24
    2bd4:	4e 5f       	subi	r20, 0xFE	; 254
    2bd6:	5f 4f       	sbci	r21, 0xFF	; 255
    2bd8:	24 17       	cp	r18, r20
    2bda:	35 07       	cpc	r19, r21
    2bdc:	48 f0       	brcs	.+18     	; 0x2bf0 <malloc+0x120>
    2bde:	4e 0f       	add	r20, r30
    2be0:	5f 1f       	adc	r21, r31
    2be2:	50 93 ec 02 	sts	0x02EC, r21	; 0x8002ec <__brkval+0x1>
    2be6:	40 93 eb 02 	sts	0x02EB, r20	; 0x8002eb <__brkval>
    2bea:	81 93       	st	Z+, r24
    2bec:	91 93       	st	Z+, r25
    2bee:	02 c0       	rjmp	.+4      	; 0x2bf4 <malloc+0x124>
    2bf0:	e0 e0       	ldi	r30, 0x00	; 0
    2bf2:	f0 e0       	ldi	r31, 0x00	; 0
    2bf4:	cf 01       	movw	r24, r30
    2bf6:	df 91       	pop	r29
    2bf8:	cf 91       	pop	r28
    2bfa:	1f 91       	pop	r17
    2bfc:	0f 91       	pop	r16
    2bfe:	08 95       	ret

00002c00 <free>:
    2c00:	cf 93       	push	r28
    2c02:	df 93       	push	r29
    2c04:	00 97       	sbiw	r24, 0x00	; 0
    2c06:	09 f4       	brne	.+2      	; 0x2c0a <free+0xa>
    2c08:	81 c0       	rjmp	.+258    	; 0x2d0c <free+0x10c>
    2c0a:	fc 01       	movw	r30, r24
    2c0c:	32 97       	sbiw	r30, 0x02	; 2
    2c0e:	13 82       	std	Z+3, r1	; 0x03
    2c10:	12 82       	std	Z+2, r1	; 0x02
    2c12:	a0 91 ed 02 	lds	r26, 0x02ED	; 0x8002ed <__flp>
    2c16:	b0 91 ee 02 	lds	r27, 0x02EE	; 0x8002ee <__flp+0x1>
    2c1a:	10 97       	sbiw	r26, 0x00	; 0
    2c1c:	81 f4       	brne	.+32     	; 0x2c3e <free+0x3e>
    2c1e:	20 81       	ld	r18, Z
    2c20:	31 81       	ldd	r19, Z+1	; 0x01
    2c22:	82 0f       	add	r24, r18
    2c24:	93 1f       	adc	r25, r19
    2c26:	20 91 eb 02 	lds	r18, 0x02EB	; 0x8002eb <__brkval>
    2c2a:	30 91 ec 02 	lds	r19, 0x02EC	; 0x8002ec <__brkval+0x1>
    2c2e:	28 17       	cp	r18, r24
    2c30:	39 07       	cpc	r19, r25
    2c32:	51 f5       	brne	.+84     	; 0x2c88 <free+0x88>
    2c34:	f0 93 ec 02 	sts	0x02EC, r31	; 0x8002ec <__brkval+0x1>
    2c38:	e0 93 eb 02 	sts	0x02EB, r30	; 0x8002eb <__brkval>
    2c3c:	67 c0       	rjmp	.+206    	; 0x2d0c <free+0x10c>
    2c3e:	ed 01       	movw	r28, r26
    2c40:	20 e0       	ldi	r18, 0x00	; 0
    2c42:	30 e0       	ldi	r19, 0x00	; 0
    2c44:	ce 17       	cp	r28, r30
    2c46:	df 07       	cpc	r29, r31
    2c48:	40 f4       	brcc	.+16     	; 0x2c5a <free+0x5a>
    2c4a:	4a 81       	ldd	r20, Y+2	; 0x02
    2c4c:	5b 81       	ldd	r21, Y+3	; 0x03
    2c4e:	9e 01       	movw	r18, r28
    2c50:	41 15       	cp	r20, r1
    2c52:	51 05       	cpc	r21, r1
    2c54:	f1 f0       	breq	.+60     	; 0x2c92 <free+0x92>
    2c56:	ea 01       	movw	r28, r20
    2c58:	f5 cf       	rjmp	.-22     	; 0x2c44 <free+0x44>
    2c5a:	d3 83       	std	Z+3, r29	; 0x03
    2c5c:	c2 83       	std	Z+2, r28	; 0x02
    2c5e:	40 81       	ld	r20, Z
    2c60:	51 81       	ldd	r21, Z+1	; 0x01
    2c62:	84 0f       	add	r24, r20
    2c64:	95 1f       	adc	r25, r21
    2c66:	c8 17       	cp	r28, r24
    2c68:	d9 07       	cpc	r29, r25
    2c6a:	59 f4       	brne	.+22     	; 0x2c82 <free+0x82>
    2c6c:	88 81       	ld	r24, Y
    2c6e:	99 81       	ldd	r25, Y+1	; 0x01
    2c70:	84 0f       	add	r24, r20
    2c72:	95 1f       	adc	r25, r21
    2c74:	02 96       	adiw	r24, 0x02	; 2
    2c76:	91 83       	std	Z+1, r25	; 0x01
    2c78:	80 83       	st	Z, r24
    2c7a:	8a 81       	ldd	r24, Y+2	; 0x02
    2c7c:	9b 81       	ldd	r25, Y+3	; 0x03
    2c7e:	93 83       	std	Z+3, r25	; 0x03
    2c80:	82 83       	std	Z+2, r24	; 0x02
    2c82:	21 15       	cp	r18, r1
    2c84:	31 05       	cpc	r19, r1
    2c86:	29 f4       	brne	.+10     	; 0x2c92 <free+0x92>
    2c88:	f0 93 ee 02 	sts	0x02EE, r31	; 0x8002ee <__flp+0x1>
    2c8c:	e0 93 ed 02 	sts	0x02ED, r30	; 0x8002ed <__flp>
    2c90:	3d c0       	rjmp	.+122    	; 0x2d0c <free+0x10c>
    2c92:	e9 01       	movw	r28, r18
    2c94:	fb 83       	std	Y+3, r31	; 0x03
    2c96:	ea 83       	std	Y+2, r30	; 0x02
    2c98:	49 91       	ld	r20, Y+
    2c9a:	59 91       	ld	r21, Y+
    2c9c:	c4 0f       	add	r28, r20
    2c9e:	d5 1f       	adc	r29, r21
    2ca0:	ec 17       	cp	r30, r28
    2ca2:	fd 07       	cpc	r31, r29
    2ca4:	61 f4       	brne	.+24     	; 0x2cbe <free+0xbe>
    2ca6:	80 81       	ld	r24, Z
    2ca8:	91 81       	ldd	r25, Z+1	; 0x01
    2caa:	84 0f       	add	r24, r20
    2cac:	95 1f       	adc	r25, r21
    2cae:	02 96       	adiw	r24, 0x02	; 2
    2cb0:	e9 01       	movw	r28, r18
    2cb2:	99 83       	std	Y+1, r25	; 0x01
    2cb4:	88 83       	st	Y, r24
    2cb6:	82 81       	ldd	r24, Z+2	; 0x02
    2cb8:	93 81       	ldd	r25, Z+3	; 0x03
    2cba:	9b 83       	std	Y+3, r25	; 0x03
    2cbc:	8a 83       	std	Y+2, r24	; 0x02
    2cbe:	e0 e0       	ldi	r30, 0x00	; 0
    2cc0:	f0 e0       	ldi	r31, 0x00	; 0
    2cc2:	12 96       	adiw	r26, 0x02	; 2
    2cc4:	8d 91       	ld	r24, X+
    2cc6:	9c 91       	ld	r25, X
    2cc8:	13 97       	sbiw	r26, 0x03	; 3
    2cca:	00 97       	sbiw	r24, 0x00	; 0
    2ccc:	19 f0       	breq	.+6      	; 0x2cd4 <free+0xd4>
    2cce:	fd 01       	movw	r30, r26
    2cd0:	dc 01       	movw	r26, r24
    2cd2:	f7 cf       	rjmp	.-18     	; 0x2cc2 <free+0xc2>
    2cd4:	8d 91       	ld	r24, X+
    2cd6:	9c 91       	ld	r25, X
    2cd8:	11 97       	sbiw	r26, 0x01	; 1
    2cda:	9d 01       	movw	r18, r26
    2cdc:	2e 5f       	subi	r18, 0xFE	; 254
    2cde:	3f 4f       	sbci	r19, 0xFF	; 255
    2ce0:	82 0f       	add	r24, r18
    2ce2:	93 1f       	adc	r25, r19
    2ce4:	20 91 eb 02 	lds	r18, 0x02EB	; 0x8002eb <__brkval>
    2ce8:	30 91 ec 02 	lds	r19, 0x02EC	; 0x8002ec <__brkval+0x1>
    2cec:	28 17       	cp	r18, r24
    2cee:	39 07       	cpc	r19, r25
    2cf0:	69 f4       	brne	.+26     	; 0x2d0c <free+0x10c>
    2cf2:	30 97       	sbiw	r30, 0x00	; 0
    2cf4:	29 f4       	brne	.+10     	; 0x2d00 <free+0x100>
    2cf6:	10 92 ee 02 	sts	0x02EE, r1	; 0x8002ee <__flp+0x1>
    2cfa:	10 92 ed 02 	sts	0x02ED, r1	; 0x8002ed <__flp>
    2cfe:	02 c0       	rjmp	.+4      	; 0x2d04 <free+0x104>
    2d00:	13 82       	std	Z+3, r1	; 0x03
    2d02:	12 82       	std	Z+2, r1	; 0x02
    2d04:	b0 93 ec 02 	sts	0x02EC, r27	; 0x8002ec <__brkval+0x1>
    2d08:	a0 93 eb 02 	sts	0x02EB, r26	; 0x8002eb <__brkval>
    2d0c:	df 91       	pop	r29
    2d0e:	cf 91       	pop	r28
    2d10:	08 95       	ret

00002d12 <realloc>:
    2d12:	a0 e0       	ldi	r26, 0x00	; 0
    2d14:	b0 e0       	ldi	r27, 0x00	; 0
    2d16:	ef e8       	ldi	r30, 0x8F	; 143
    2d18:	f6 e1       	ldi	r31, 0x16	; 22
    2d1a:	0c 94 10 1f 	jmp	0x3e20	; 0x3e20 <__prologue_saves__+0x8>
    2d1e:	ec 01       	movw	r28, r24
    2d20:	00 97       	sbiw	r24, 0x00	; 0
    2d22:	21 f4       	brne	.+8      	; 0x2d2c <realloc+0x1a>
    2d24:	cb 01       	movw	r24, r22
    2d26:	0e 94 68 15 	call	0x2ad0	; 0x2ad0 <malloc>
    2d2a:	b4 c0       	rjmp	.+360    	; 0x2e94 <realloc+0x182>
    2d2c:	fc 01       	movw	r30, r24
    2d2e:	e6 0f       	add	r30, r22
    2d30:	f7 1f       	adc	r31, r23
    2d32:	9c 01       	movw	r18, r24
    2d34:	22 50       	subi	r18, 0x02	; 2
    2d36:	31 09       	sbc	r19, r1
    2d38:	e2 17       	cp	r30, r18
    2d3a:	f3 07       	cpc	r31, r19
    2d3c:	08 f4       	brcc	.+2      	; 0x2d40 <realloc+0x2e>
    2d3e:	a8 c0       	rjmp	.+336    	; 0x2e90 <realloc+0x17e>
    2d40:	d9 01       	movw	r26, r18
    2d42:	0d 91       	ld	r16, X+
    2d44:	1c 91       	ld	r17, X
    2d46:	11 97       	sbiw	r26, 0x01	; 1
    2d48:	06 17       	cp	r16, r22
    2d4a:	17 07       	cpc	r17, r23
    2d4c:	b0 f0       	brcs	.+44     	; 0x2d7a <realloc+0x68>
    2d4e:	05 30       	cpi	r16, 0x05	; 5
    2d50:	11 05       	cpc	r17, r1
    2d52:	08 f4       	brcc	.+2      	; 0x2d56 <realloc+0x44>
    2d54:	9b c0       	rjmp	.+310    	; 0x2e8c <realloc+0x17a>
    2d56:	c8 01       	movw	r24, r16
    2d58:	04 97       	sbiw	r24, 0x04	; 4
    2d5a:	86 17       	cp	r24, r22
    2d5c:	97 07       	cpc	r25, r23
    2d5e:	08 f4       	brcc	.+2      	; 0x2d62 <realloc+0x50>
    2d60:	95 c0       	rjmp	.+298    	; 0x2e8c <realloc+0x17a>
    2d62:	02 50       	subi	r16, 0x02	; 2
    2d64:	11 09       	sbc	r17, r1
    2d66:	06 1b       	sub	r16, r22
    2d68:	17 0b       	sbc	r17, r23
    2d6a:	01 93       	st	Z+, r16
    2d6c:	11 93       	st	Z+, r17
    2d6e:	6d 93       	st	X+, r22
    2d70:	7c 93       	st	X, r23
    2d72:	cf 01       	movw	r24, r30
    2d74:	0e 94 00 16 	call	0x2c00	; 0x2c00 <free>
    2d78:	89 c0       	rjmp	.+274    	; 0x2e8c <realloc+0x17a>
    2d7a:	5b 01       	movw	r10, r22
    2d7c:	a0 1a       	sub	r10, r16
    2d7e:	b1 0a       	sbc	r11, r17
    2d80:	4c 01       	movw	r8, r24
    2d82:	80 0e       	add	r8, r16
    2d84:	91 1e       	adc	r9, r17
    2d86:	a0 91 ed 02 	lds	r26, 0x02ED	; 0x8002ed <__flp>
    2d8a:	b0 91 ee 02 	lds	r27, 0x02EE	; 0x8002ee <__flp+0x1>
    2d8e:	61 2c       	mov	r6, r1
    2d90:	71 2c       	mov	r7, r1
    2d92:	e1 2c       	mov	r14, r1
    2d94:	f1 2c       	mov	r15, r1
    2d96:	10 97       	sbiw	r26, 0x00	; 0
    2d98:	09 f4       	brne	.+2      	; 0x2d9c <realloc+0x8a>
    2d9a:	46 c0       	rjmp	.+140    	; 0x2e28 <realloc+0x116>
    2d9c:	8d 91       	ld	r24, X+
    2d9e:	9c 91       	ld	r25, X
    2da0:	11 97       	sbiw	r26, 0x01	; 1
    2da2:	a8 15       	cp	r26, r8
    2da4:	b9 05       	cpc	r27, r9
    2da6:	b1 f5       	brne	.+108    	; 0x2e14 <realloc+0x102>
    2da8:	6c 01       	movw	r12, r24
    2daa:	42 e0       	ldi	r20, 0x02	; 2
    2dac:	c4 0e       	add	r12, r20
    2dae:	d1 1c       	adc	r13, r1
    2db0:	ca 14       	cp	r12, r10
    2db2:	db 04       	cpc	r13, r11
    2db4:	78 f1       	brcs	.+94     	; 0x2e14 <realloc+0x102>
    2db6:	4c 01       	movw	r8, r24
    2db8:	8a 18       	sub	r8, r10
    2dba:	9b 08       	sbc	r9, r11
    2dbc:	64 01       	movw	r12, r8
    2dbe:	42 e0       	ldi	r20, 0x02	; 2
    2dc0:	c4 0e       	add	r12, r20
    2dc2:	d1 1c       	adc	r13, r1
    2dc4:	12 96       	adiw	r26, 0x02	; 2
    2dc6:	bc 90       	ld	r11, X
    2dc8:	12 97       	sbiw	r26, 0x02	; 2
    2dca:	13 96       	adiw	r26, 0x03	; 3
    2dcc:	ac 91       	ld	r26, X
    2dce:	b5 e0       	ldi	r27, 0x05	; 5
    2dd0:	cb 16       	cp	r12, r27
    2dd2:	d1 04       	cpc	r13, r1
    2dd4:	40 f0       	brcs	.+16     	; 0x2de6 <realloc+0xd4>
    2dd6:	b2 82       	std	Z+2, r11	; 0x02
    2dd8:	a3 83       	std	Z+3, r26	; 0x03
    2dda:	91 82       	std	Z+1, r9	; 0x01
    2ddc:	80 82       	st	Z, r8
    2dde:	d9 01       	movw	r26, r18
    2de0:	6d 93       	st	X+, r22
    2de2:	7c 93       	st	X, r23
    2de4:	09 c0       	rjmp	.+18     	; 0x2df8 <realloc+0xe6>
    2de6:	0e 5f       	subi	r16, 0xFE	; 254
    2de8:	1f 4f       	sbci	r17, 0xFF	; 255
    2dea:	80 0f       	add	r24, r16
    2dec:	91 1f       	adc	r25, r17
    2dee:	f9 01       	movw	r30, r18
    2df0:	91 83       	std	Z+1, r25	; 0x01
    2df2:	80 83       	st	Z, r24
    2df4:	eb 2d       	mov	r30, r11
    2df6:	fa 2f       	mov	r31, r26
    2df8:	e1 14       	cp	r14, r1
    2dfa:	f1 04       	cpc	r15, r1
    2dfc:	31 f0       	breq	.+12     	; 0x2e0a <realloc+0xf8>
    2dfe:	d7 01       	movw	r26, r14
    2e00:	13 96       	adiw	r26, 0x03	; 3
    2e02:	fc 93       	st	X, r31
    2e04:	ee 93       	st	-X, r30
    2e06:	12 97       	sbiw	r26, 0x02	; 2
    2e08:	41 c0       	rjmp	.+130    	; 0x2e8c <realloc+0x17a>
    2e0a:	f0 93 ee 02 	sts	0x02EE, r31	; 0x8002ee <__flp+0x1>
    2e0e:	e0 93 ed 02 	sts	0x02ED, r30	; 0x8002ed <__flp>
    2e12:	3c c0       	rjmp	.+120    	; 0x2e8c <realloc+0x17a>
    2e14:	68 16       	cp	r6, r24
    2e16:	79 06       	cpc	r7, r25
    2e18:	08 f4       	brcc	.+2      	; 0x2e1c <realloc+0x10a>
    2e1a:	3c 01       	movw	r6, r24
    2e1c:	7d 01       	movw	r14, r26
    2e1e:	12 96       	adiw	r26, 0x02	; 2
    2e20:	0d 90       	ld	r0, X+
    2e22:	bc 91       	ld	r27, X
    2e24:	a0 2d       	mov	r26, r0
    2e26:	b7 cf       	rjmp	.-146    	; 0x2d96 <realloc+0x84>
    2e28:	80 91 eb 02 	lds	r24, 0x02EB	; 0x8002eb <__brkval>
    2e2c:	90 91 ec 02 	lds	r25, 0x02EC	; 0x8002ec <__brkval+0x1>
    2e30:	88 16       	cp	r8, r24
    2e32:	99 06       	cpc	r9, r25
    2e34:	e1 f4       	brne	.+56     	; 0x2e6e <realloc+0x15c>
    2e36:	66 16       	cp	r6, r22
    2e38:	77 06       	cpc	r7, r23
    2e3a:	c8 f4       	brcc	.+50     	; 0x2e6e <realloc+0x15c>
    2e3c:	80 91 00 01 	lds	r24, 0x0100	; 0x800100 <__DATA_REGION_ORIGIN__>
    2e40:	90 91 01 01 	lds	r25, 0x0101	; 0x800101 <__DATA_REGION_ORIGIN__+0x1>
    2e44:	00 97       	sbiw	r24, 0x00	; 0
    2e46:	41 f4       	brne	.+16     	; 0x2e58 <realloc+0x146>
    2e48:	8d b7       	in	r24, 0x3d	; 61
    2e4a:	9e b7       	in	r25, 0x3e	; 62
    2e4c:	40 91 04 01 	lds	r20, 0x0104	; 0x800104 <__malloc_margin>
    2e50:	50 91 05 01 	lds	r21, 0x0105	; 0x800105 <__malloc_margin+0x1>
    2e54:	84 1b       	sub	r24, r20
    2e56:	95 0b       	sbc	r25, r21
    2e58:	e8 17       	cp	r30, r24
    2e5a:	f9 07       	cpc	r31, r25
    2e5c:	c8 f4       	brcc	.+50     	; 0x2e90 <realloc+0x17e>
    2e5e:	f0 93 ec 02 	sts	0x02EC, r31	; 0x8002ec <__brkval+0x1>
    2e62:	e0 93 eb 02 	sts	0x02EB, r30	; 0x8002eb <__brkval>
    2e66:	f9 01       	movw	r30, r18
    2e68:	71 83       	std	Z+1, r23	; 0x01
    2e6a:	60 83       	st	Z, r22
    2e6c:	0f c0       	rjmp	.+30     	; 0x2e8c <realloc+0x17a>
    2e6e:	cb 01       	movw	r24, r22
    2e70:	0e 94 68 15 	call	0x2ad0	; 0x2ad0 <malloc>
    2e74:	7c 01       	movw	r14, r24
    2e76:	00 97       	sbiw	r24, 0x00	; 0
    2e78:	59 f0       	breq	.+22     	; 0x2e90 <realloc+0x17e>
    2e7a:	a8 01       	movw	r20, r16
    2e7c:	be 01       	movw	r22, r28
    2e7e:	0e 94 c6 18 	call	0x318c	; 0x318c <memcpy>
    2e82:	ce 01       	movw	r24, r28
    2e84:	0e 94 00 16 	call	0x2c00	; 0x2c00 <free>
    2e88:	c7 01       	movw	r24, r14
    2e8a:	04 c0       	rjmp	.+8      	; 0x2e94 <realloc+0x182>
    2e8c:	ce 01       	movw	r24, r28
    2e8e:	02 c0       	rjmp	.+4      	; 0x2e94 <realloc+0x182>
    2e90:	80 e0       	ldi	r24, 0x00	; 0
    2e92:	90 e0       	ldi	r25, 0x00	; 0
    2e94:	cd b7       	in	r28, 0x3d	; 61
    2e96:	de b7       	in	r29, 0x3e	; 62
    2e98:	ee e0       	ldi	r30, 0x0E	; 14
    2e9a:	0c 94 2c 1f 	jmp	0x3e58	; 0x3e58 <__epilogue_restores__+0x8>

00002e9e <strtod>:
    2e9e:	a0 e0       	ldi	r26, 0x00	; 0
    2ea0:	b0 e0       	ldi	r27, 0x00	; 0
    2ea2:	e5 e5       	ldi	r30, 0x55	; 85
    2ea4:	f7 e1       	ldi	r31, 0x17	; 23
    2ea6:	0c 94 12 1f 	jmp	0x3e24	; 0x3e24 <__prologue_saves__+0xc>
    2eaa:	ec 01       	movw	r28, r24
    2eac:	6b 01       	movw	r12, r22
    2eae:	61 15       	cp	r22, r1
    2eb0:	71 05       	cpc	r23, r1
    2eb2:	19 f0       	breq	.+6      	; 0x2eba <strtod+0x1c>
    2eb4:	fb 01       	movw	r30, r22
    2eb6:	91 83       	std	Z+1, r25	; 0x01
    2eb8:	80 83       	st	Z, r24
    2eba:	7e 01       	movw	r14, r28
    2ebc:	ff ef       	ldi	r31, 0xFF	; 255
    2ebe:	ef 1a       	sub	r14, r31
    2ec0:	ff 0a       	sbc	r15, r31
    2ec2:	08 81       	ld	r16, Y
    2ec4:	80 2f       	mov	r24, r16
    2ec6:	90 e0       	ldi	r25, 0x00	; 0
    2ec8:	0e 94 9d 18 	call	0x313a	; 0x313a <isspace>
    2ecc:	89 2b       	or	r24, r25
    2ece:	11 f0       	breq	.+4      	; 0x2ed4 <strtod+0x36>
    2ed0:	e7 01       	movw	r28, r14
    2ed2:	f3 cf       	rjmp	.-26     	; 0x2eba <strtod+0x1c>
    2ed4:	0d 32       	cpi	r16, 0x2D	; 45
    2ed6:	39 f4       	brne	.+14     	; 0x2ee6 <strtod+0x48>
    2ed8:	7e 01       	movw	r14, r28
    2eda:	82 e0       	ldi	r24, 0x02	; 2
    2edc:	e8 0e       	add	r14, r24
    2ede:	f1 1c       	adc	r15, r1
    2ee0:	09 81       	ldd	r16, Y+1	; 0x01
    2ee2:	11 e0       	ldi	r17, 0x01	; 1
    2ee4:	08 c0       	rjmp	.+16     	; 0x2ef6 <strtod+0x58>
    2ee6:	0b 32       	cpi	r16, 0x2B	; 43
    2ee8:	29 f4       	brne	.+10     	; 0x2ef4 <strtod+0x56>
    2eea:	7e 01       	movw	r14, r28
    2eec:	92 e0       	ldi	r25, 0x02	; 2
    2eee:	e9 0e       	add	r14, r25
    2ef0:	f1 1c       	adc	r15, r1
    2ef2:	09 81       	ldd	r16, Y+1	; 0x01
    2ef4:	10 e0       	ldi	r17, 0x00	; 0
    2ef6:	e7 01       	movw	r28, r14
    2ef8:	21 97       	sbiw	r28, 0x01	; 1
    2efa:	43 e0       	ldi	r20, 0x03	; 3
    2efc:	50 e0       	ldi	r21, 0x00	; 0
    2efe:	6e e8       	ldi	r22, 0x8E	; 142
    2f00:	71 e0       	ldi	r23, 0x01	; 1
    2f02:	ce 01       	movw	r24, r28
    2f04:	0e 94 ae 18 	call	0x315c	; 0x315c <strncasecmp_P>
    2f08:	89 2b       	or	r24, r25
    2f0a:	c1 f4       	brne	.+48     	; 0x2f3c <strtod+0x9e>
    2f0c:	23 96       	adiw	r28, 0x03	; 3
    2f0e:	45 e0       	ldi	r20, 0x05	; 5
    2f10:	50 e0       	ldi	r21, 0x00	; 0
    2f12:	69 e8       	ldi	r22, 0x89	; 137
    2f14:	71 e0       	ldi	r23, 0x01	; 1
    2f16:	ce 01       	movw	r24, r28
    2f18:	0e 94 ae 18 	call	0x315c	; 0x315c <strncasecmp_P>
    2f1c:	89 2b       	or	r24, r25
    2f1e:	09 f4       	brne	.+2      	; 0x2f22 <strtod+0x84>
    2f20:	25 96       	adiw	r28, 0x05	; 5
    2f22:	c1 14       	cp	r12, r1
    2f24:	d1 04       	cpc	r13, r1
    2f26:	19 f0       	breq	.+6      	; 0x2f2e <strtod+0x90>
    2f28:	f6 01       	movw	r30, r12
    2f2a:	d1 83       	std	Z+1, r29	; 0x01
    2f2c:	c0 83       	st	Z, r28
    2f2e:	11 11       	cpse	r17, r1
    2f30:	f6 c0       	rjmp	.+492    	; 0x311e <strtod+0x280>
    2f32:	60 e0       	ldi	r22, 0x00	; 0
    2f34:	70 e0       	ldi	r23, 0x00	; 0
    2f36:	80 e8       	ldi	r24, 0x80	; 128
    2f38:	9f e7       	ldi	r25, 0x7F	; 127
    2f3a:	fa c0       	rjmp	.+500    	; 0x3130 <strtod+0x292>
    2f3c:	43 e0       	ldi	r20, 0x03	; 3
    2f3e:	50 e0       	ldi	r21, 0x00	; 0
    2f40:	66 e8       	ldi	r22, 0x86	; 134
    2f42:	71 e0       	ldi	r23, 0x01	; 1
    2f44:	ce 01       	movw	r24, r28
    2f46:	0e 94 ae 18 	call	0x315c	; 0x315c <strncasecmp_P>
    2f4a:	89 2b       	or	r24, r25
    2f4c:	59 f4       	brne	.+22     	; 0x2f64 <strtod+0xc6>
    2f4e:	c1 14       	cp	r12, r1
    2f50:	d1 04       	cpc	r13, r1
    2f52:	09 f4       	brne	.+2      	; 0x2f56 <strtod+0xb8>
    2f54:	e9 c0       	rjmp	.+466    	; 0x3128 <strtod+0x28a>
    2f56:	f2 e0       	ldi	r31, 0x02	; 2
    2f58:	ef 0e       	add	r14, r31
    2f5a:	f1 1c       	adc	r15, r1
    2f5c:	f6 01       	movw	r30, r12
    2f5e:	f1 82       	std	Z+1, r15	; 0x01
    2f60:	e0 82       	st	Z, r14
    2f62:	e2 c0       	rjmp	.+452    	; 0x3128 <strtod+0x28a>
    2f64:	20 e0       	ldi	r18, 0x00	; 0
    2f66:	30 e0       	ldi	r19, 0x00	; 0
    2f68:	a9 01       	movw	r20, r18
    2f6a:	c0 e0       	ldi	r28, 0x00	; 0
    2f6c:	d0 e0       	ldi	r29, 0x00	; 0
    2f6e:	f7 01       	movw	r30, r14
    2f70:	80 ed       	ldi	r24, 0xD0	; 208
    2f72:	a8 2e       	mov	r10, r24
    2f74:	a0 0e       	add	r10, r16
    2f76:	89 e0       	ldi	r24, 0x09	; 9
    2f78:	8a 15       	cp	r24, r10
    2f7a:	30 f1       	brcs	.+76     	; 0x2fc8 <strtod+0x12a>
    2f7c:	91 2f       	mov	r25, r17
    2f7e:	92 60       	ori	r25, 0x02	; 2
    2f80:	b9 2e       	mov	r11, r25
    2f82:	81 2f       	mov	r24, r17
    2f84:	88 70       	andi	r24, 0x08	; 8
    2f86:	12 ff       	sbrs	r17, 2
    2f88:	04 c0       	rjmp	.+8      	; 0x2f92 <strtod+0xf4>
    2f8a:	81 11       	cpse	r24, r1
    2f8c:	24 c0       	rjmp	.+72     	; 0x2fd6 <strtod+0x138>
    2f8e:	21 96       	adiw	r28, 0x01	; 1
    2f90:	22 c0       	rjmp	.+68     	; 0x2fd6 <strtod+0x138>
    2f92:	81 11       	cpse	r24, r1
    2f94:	21 97       	sbiw	r28, 0x01	; 1
    2f96:	a5 e0       	ldi	r26, 0x05	; 5
    2f98:	b0 e0       	ldi	r27, 0x00	; 0
    2f9a:	0e 94 01 1f 	call	0x3e02	; 0x3e02 <__muluhisi3>
    2f9e:	dc 01       	movw	r26, r24
    2fa0:	cb 01       	movw	r24, r22
    2fa2:	88 0f       	add	r24, r24
    2fa4:	99 1f       	adc	r25, r25
    2fa6:	aa 1f       	adc	r26, r26
    2fa8:	bb 1f       	adc	r27, r27
    2faa:	9c 01       	movw	r18, r24
    2fac:	ad 01       	movw	r20, r26
    2fae:	2a 0d       	add	r18, r10
    2fb0:	31 1d       	adc	r19, r1
    2fb2:	41 1d       	adc	r20, r1
    2fb4:	51 1d       	adc	r21, r1
    2fb6:	28 39       	cpi	r18, 0x98	; 152
    2fb8:	89 e9       	ldi	r24, 0x99	; 153
    2fba:	38 07       	cpc	r19, r24
    2fbc:	48 07       	cpc	r20, r24
    2fbe:	89 e1       	ldi	r24, 0x19	; 25
    2fc0:	58 07       	cpc	r21, r24
    2fc2:	48 f0       	brcs	.+18     	; 0x2fd6 <strtod+0x138>
    2fc4:	16 60       	ori	r17, 0x06	; 6
    2fc6:	06 c0       	rjmp	.+12     	; 0x2fd4 <strtod+0x136>
    2fc8:	9e ef       	ldi	r25, 0xFE	; 254
    2fca:	a9 12       	cpse	r10, r25
    2fcc:	0a c0       	rjmp	.+20     	; 0x2fe2 <strtod+0x144>
    2fce:	13 fd       	sbrc	r17, 3
    2fd0:	40 c0       	rjmp	.+128    	; 0x3052 <strtod+0x1b4>
    2fd2:	18 60       	ori	r17, 0x08	; 8
    2fd4:	b1 2e       	mov	r11, r17
    2fd6:	8f ef       	ldi	r24, 0xFF	; 255
    2fd8:	e8 1a       	sub	r14, r24
    2fda:	f8 0a       	sbc	r15, r24
    2fdc:	00 81       	ld	r16, Z
    2fde:	1b 2d       	mov	r17, r11
    2fe0:	c6 cf       	rjmp	.-116    	; 0x2f6e <strtod+0xd0>
    2fe2:	80 2f       	mov	r24, r16
    2fe4:	8f 7d       	andi	r24, 0xDF	; 223
    2fe6:	85 34       	cpi	r24, 0x45	; 69
    2fe8:	a1 f5       	brne	.+104    	; 0x3052 <strtod+0x1b4>
    2fea:	80 81       	ld	r24, Z
    2fec:	8d 32       	cpi	r24, 0x2D	; 45
    2fee:	11 f4       	brne	.+4      	; 0x2ff4 <strtod+0x156>
    2ff0:	10 61       	ori	r17, 0x10	; 16
    2ff2:	06 c0       	rjmp	.+12     	; 0x3000 <strtod+0x162>
    2ff4:	8b 32       	cpi	r24, 0x2B	; 43
    2ff6:	21 f0       	breq	.+8      	; 0x3000 <strtod+0x162>
    2ff8:	31 96       	adiw	r30, 0x01	; 1
    2ffa:	61 e0       	ldi	r22, 0x01	; 1
    2ffc:	70 e0       	ldi	r23, 0x00	; 0
    2ffe:	04 c0       	rjmp	.+8      	; 0x3008 <strtod+0x16a>
    3000:	81 81       	ldd	r24, Z+1	; 0x01
    3002:	32 96       	adiw	r30, 0x02	; 2
    3004:	62 e0       	ldi	r22, 0x02	; 2
    3006:	70 e0       	ldi	r23, 0x00	; 0
    3008:	80 53       	subi	r24, 0x30	; 48
    300a:	8a 30       	cpi	r24, 0x0A	; 10
    300c:	18 f0       	brcs	.+6      	; 0x3014 <strtod+0x176>
    300e:	e6 1b       	sub	r30, r22
    3010:	f7 0b       	sbc	r31, r23
    3012:	1f c0       	rjmp	.+62     	; 0x3052 <strtod+0x1b4>
    3014:	60 e0       	ldi	r22, 0x00	; 0
    3016:	70 e0       	ldi	r23, 0x00	; 0
    3018:	60 38       	cpi	r22, 0x80	; 128
    301a:	9c e0       	ldi	r25, 0x0C	; 12
    301c:	79 07       	cpc	r23, r25
    301e:	5c f4       	brge	.+22     	; 0x3036 <strtod+0x198>
    3020:	db 01       	movw	r26, r22
    3022:	aa 0f       	add	r26, r26
    3024:	bb 1f       	adc	r27, r27
    3026:	aa 0f       	add	r26, r26
    3028:	bb 1f       	adc	r27, r27
    302a:	6a 0f       	add	r22, r26
    302c:	7b 1f       	adc	r23, r27
    302e:	66 0f       	add	r22, r22
    3030:	77 1f       	adc	r23, r23
    3032:	68 0f       	add	r22, r24
    3034:	71 1d       	adc	r23, r1
    3036:	31 96       	adiw	r30, 0x01	; 1
    3038:	df 01       	movw	r26, r30
    303a:	11 97       	sbiw	r26, 0x01	; 1
    303c:	8c 91       	ld	r24, X
    303e:	80 53       	subi	r24, 0x30	; 48
    3040:	8a 30       	cpi	r24, 0x0A	; 10
    3042:	50 f3       	brcs	.-44     	; 0x3018 <strtod+0x17a>
    3044:	14 ff       	sbrs	r17, 4
    3046:	03 c0       	rjmp	.+6      	; 0x304e <strtod+0x1b0>
    3048:	71 95       	neg	r23
    304a:	61 95       	neg	r22
    304c:	71 09       	sbc	r23, r1
    304e:	c6 0f       	add	r28, r22
    3050:	d7 1f       	adc	r29, r23
    3052:	11 ff       	sbrs	r17, 1
    3054:	08 c0       	rjmp	.+16     	; 0x3066 <strtod+0x1c8>
    3056:	c1 14       	cp	r12, r1
    3058:	d1 04       	cpc	r13, r1
    305a:	29 f0       	breq	.+10     	; 0x3066 <strtod+0x1c8>
    305c:	cf 01       	movw	r24, r30
    305e:	01 97       	sbiw	r24, 0x01	; 1
    3060:	f6 01       	movw	r30, r12
    3062:	91 83       	std	Z+1, r25	; 0x01
    3064:	80 83       	st	Z, r24
    3066:	ca 01       	movw	r24, r20
    3068:	b9 01       	movw	r22, r18
    306a:	0e 94 1c 14 	call	0x2838	; 0x2838 <__floatunsisf>
    306e:	21 2f       	mov	r18, r17
    3070:	23 70       	andi	r18, 0x03	; 3
    3072:	23 30       	cpi	r18, 0x03	; 3
    3074:	19 f0       	breq	.+6      	; 0x307c <strtod+0x1de>
    3076:	4b 01       	movw	r8, r22
    3078:	5c 01       	movw	r10, r24
    307a:	06 c0       	rjmp	.+12     	; 0x3088 <strtod+0x1ea>
    307c:	4b 01       	movw	r8, r22
    307e:	5c 01       	movw	r10, r24
    3080:	b7 fa       	bst	r11, 7
    3082:	b0 94       	com	r11
    3084:	b7 f8       	bld	r11, 7
    3086:	b0 94       	com	r11
    3088:	20 e0       	ldi	r18, 0x00	; 0
    308a:	30 e0       	ldi	r19, 0x00	; 0
    308c:	a9 01       	movw	r20, r18
    308e:	c5 01       	movw	r24, r10
    3090:	b4 01       	movw	r22, r8
    3092:	0e 94 e1 13 	call	0x27c2	; 0x27c2 <__cmpsf2>
    3096:	88 23       	and	r24, r24
    3098:	09 f4       	brne	.+2      	; 0x309c <strtod+0x1fe>
    309a:	3e c0       	rjmp	.+124    	; 0x3118 <strtod+0x27a>
    309c:	d7 ff       	sbrs	r29, 7
    309e:	06 c0       	rjmp	.+12     	; 0x30ac <strtod+0x20e>
    30a0:	d1 95       	neg	r29
    30a2:	c1 95       	neg	r28
    30a4:	d1 09       	sbc	r29, r1
    30a6:	05 ea       	ldi	r16, 0xA5	; 165
    30a8:	11 e0       	ldi	r17, 0x01	; 1
    30aa:	02 c0       	rjmp	.+4      	; 0x30b0 <strtod+0x212>
    30ac:	0d eb       	ldi	r16, 0xBD	; 189
    30ae:	11 e0       	ldi	r17, 0x01	; 1
    30b0:	68 01       	movw	r12, r16
    30b2:	f8 e1       	ldi	r31, 0x18	; 24
    30b4:	cf 1a       	sub	r12, r31
    30b6:	d1 08       	sbc	r13, r1
    30b8:	90 e2       	ldi	r25, 0x20	; 32
    30ba:	e9 2e       	mov	r14, r25
    30bc:	f1 2c       	mov	r15, r1
    30be:	ce 15       	cp	r28, r14
    30c0:	df 05       	cpc	r29, r15
    30c2:	74 f0       	brlt	.+28     	; 0x30e0 <strtod+0x242>
    30c4:	f8 01       	movw	r30, r16
    30c6:	25 91       	lpm	r18, Z+
    30c8:	35 91       	lpm	r19, Z+
    30ca:	45 91       	lpm	r20, Z+
    30cc:	54 91       	lpm	r21, Z
    30ce:	c5 01       	movw	r24, r10
    30d0:	b4 01       	movw	r22, r8
    30d2:	0e 94 d3 14 	call	0x29a6	; 0x29a6 <__mulsf3>
    30d6:	4b 01       	movw	r8, r22
    30d8:	5c 01       	movw	r10, r24
    30da:	ce 19       	sub	r28, r14
    30dc:	df 09       	sbc	r29, r15
    30de:	ef cf       	rjmp	.-34     	; 0x30be <strtod+0x220>
    30e0:	04 50       	subi	r16, 0x04	; 4
    30e2:	11 09       	sbc	r17, r1
    30e4:	f5 94       	asr	r15
    30e6:	e7 94       	ror	r14
    30e8:	0c 15       	cp	r16, r12
    30ea:	1d 05       	cpc	r17, r13
    30ec:	41 f7       	brne	.-48     	; 0x30be <strtod+0x220>
    30ee:	8a 2d       	mov	r24, r10
    30f0:	88 0f       	add	r24, r24
    30f2:	8b 2d       	mov	r24, r11
    30f4:	88 1f       	adc	r24, r24
    30f6:	8f 3f       	cpi	r24, 0xFF	; 255
    30f8:	49 f0       	breq	.+18     	; 0x310c <strtod+0x26e>
    30fa:	20 e0       	ldi	r18, 0x00	; 0
    30fc:	30 e0       	ldi	r19, 0x00	; 0
    30fe:	a9 01       	movw	r20, r18
    3100:	c5 01       	movw	r24, r10
    3102:	b4 01       	movw	r22, r8
    3104:	0e 94 e1 13 	call	0x27c2	; 0x27c2 <__cmpsf2>
    3108:	81 11       	cpse	r24, r1
    310a:	06 c0       	rjmp	.+12     	; 0x3118 <strtod+0x27a>
    310c:	82 e2       	ldi	r24, 0x22	; 34
    310e:	90 e0       	ldi	r25, 0x00	; 0
    3110:	90 93 f0 02 	sts	0x02F0, r25	; 0x8002f0 <errno+0x1>
    3114:	80 93 ef 02 	sts	0x02EF, r24	; 0x8002ef <errno>
    3118:	c5 01       	movw	r24, r10
    311a:	b4 01       	movw	r22, r8
    311c:	09 c0       	rjmp	.+18     	; 0x3130 <strtod+0x292>
    311e:	60 e0       	ldi	r22, 0x00	; 0
    3120:	70 e0       	ldi	r23, 0x00	; 0
    3122:	80 e8       	ldi	r24, 0x80	; 128
    3124:	9f ef       	ldi	r25, 0xFF	; 255
    3126:	04 c0       	rjmp	.+8      	; 0x3130 <strtod+0x292>
    3128:	60 e0       	ldi	r22, 0x00	; 0
    312a:	70 e0       	ldi	r23, 0x00	; 0
    312c:	80 ec       	ldi	r24, 0xC0	; 192
    312e:	9f e7       	ldi	r25, 0x7F	; 127
    3130:	cd b7       	in	r28, 0x3d	; 61
    3132:	de b7       	in	r29, 0x3e	; 62
    3134:	ec e0       	ldi	r30, 0x0C	; 12
    3136:	0c 94 2e 1f 	jmp	0x3e5c	; 0x3e5c <__epilogue_restores__+0xc>

0000313a <isspace>:
    313a:	91 11       	cpse	r25, r1
    313c:	0c 94 be 1d 	jmp	0x3b7c	; 0x3b7c <__ctype_isfalse>
    3140:	80 32       	cpi	r24, 0x20	; 32
    3142:	19 f0       	breq	.+6      	; 0x314a <isspace+0x10>
    3144:	89 50       	subi	r24, 0x09	; 9
    3146:	85 50       	subi	r24, 0x05	; 5
    3148:	c8 f7       	brcc	.-14     	; 0x313c <isspace+0x2>
    314a:	08 95       	ret

0000314c <tolower>:
    314c:	91 11       	cpse	r25, r1
    314e:	08 95       	ret
    3150:	81 54       	subi	r24, 0x41	; 65
    3152:	8a 51       	subi	r24, 0x1A	; 26
    3154:	08 f4       	brcc	.+2      	; 0x3158 <tolower+0xc>
    3156:	80 5e       	subi	r24, 0xE0	; 224
    3158:	85 5a       	subi	r24, 0xA5	; 165
    315a:	08 95       	ret

0000315c <strncasecmp_P>:
    315c:	fb 01       	movw	r30, r22
    315e:	dc 01       	movw	r26, r24
    3160:	41 50       	subi	r20, 0x01	; 1
    3162:	50 40       	sbci	r21, 0x00	; 0
    3164:	88 f0       	brcs	.+34     	; 0x3188 <strncasecmp_P+0x2c>
    3166:	8d 91       	ld	r24, X+
    3168:	81 34       	cpi	r24, 0x41	; 65
    316a:	1c f0       	brlt	.+6      	; 0x3172 <strncasecmp_P+0x16>
    316c:	8b 35       	cpi	r24, 0x5B	; 91
    316e:	0c f4       	brge	.+2      	; 0x3172 <strncasecmp_P+0x16>
    3170:	80 5e       	subi	r24, 0xE0	; 224
    3172:	65 91       	lpm	r22, Z+
    3174:	61 34       	cpi	r22, 0x41	; 65
    3176:	1c f0       	brlt	.+6      	; 0x317e <strncasecmp_P+0x22>
    3178:	6b 35       	cpi	r22, 0x5B	; 91
    317a:	0c f4       	brge	.+2      	; 0x317e <strncasecmp_P+0x22>
    317c:	60 5e       	subi	r22, 0xE0	; 224
    317e:	86 1b       	sub	r24, r22
    3180:	61 11       	cpse	r22, r1
    3182:	71 f3       	breq	.-36     	; 0x3160 <strncasecmp_P+0x4>
    3184:	99 0b       	sbc	r25, r25
    3186:	08 95       	ret
    3188:	88 1b       	sub	r24, r24
    318a:	fc cf       	rjmp	.-8      	; 0x3184 <strncasecmp_P+0x28>

0000318c <memcpy>:
    318c:	fb 01       	movw	r30, r22
    318e:	dc 01       	movw	r26, r24
    3190:	02 c0       	rjmp	.+4      	; 0x3196 <memcpy+0xa>
    3192:	01 90       	ld	r0, Z+
    3194:	0d 92       	st	X+, r0
    3196:	41 50       	subi	r20, 0x01	; 1
    3198:	50 40       	sbci	r21, 0x00	; 0
    319a:	d8 f7       	brcc	.-10     	; 0x3192 <memcpy+0x6>
    319c:	08 95       	ret

0000319e <strcmp>:
    319e:	fb 01       	movw	r30, r22
    31a0:	dc 01       	movw	r26, r24
    31a2:	8d 91       	ld	r24, X+
    31a4:	01 90       	ld	r0, Z+
    31a6:	80 19       	sub	r24, r0
    31a8:	01 10       	cpse	r0, r1
    31aa:	d9 f3       	breq	.-10     	; 0x31a2 <strcmp+0x4>
    31ac:	99 0b       	sbc	r25, r25
    31ae:	08 95       	ret

000031b0 <strncmp>:
    31b0:	fb 01       	movw	r30, r22
    31b2:	dc 01       	movw	r26, r24
    31b4:	41 50       	subi	r20, 0x01	; 1
    31b6:	50 40       	sbci	r21, 0x00	; 0
    31b8:	30 f0       	brcs	.+12     	; 0x31c6 <strncmp+0x16>
    31ba:	8d 91       	ld	r24, X+
    31bc:	01 90       	ld	r0, Z+
    31be:	80 19       	sub	r24, r0
    31c0:	19 f4       	brne	.+6      	; 0x31c8 <strncmp+0x18>
    31c2:	00 20       	and	r0, r0
    31c4:	b9 f7       	brne	.-18     	; 0x31b4 <strncmp+0x4>
    31c6:	88 1b       	sub	r24, r24
    31c8:	99 0b       	sbc	r25, r25
    31ca:	08 95       	ret

000031cc <strncpy>:
    31cc:	fb 01       	movw	r30, r22
    31ce:	dc 01       	movw	r26, r24
    31d0:	41 50       	subi	r20, 0x01	; 1
    31d2:	50 40       	sbci	r21, 0x00	; 0
    31d4:	48 f0       	brcs	.+18     	; 0x31e8 <strncpy+0x1c>
    31d6:	01 90       	ld	r0, Z+
    31d8:	0d 92       	st	X+, r0
    31da:	00 20       	and	r0, r0
    31dc:	c9 f7       	brne	.-14     	; 0x31d0 <strncpy+0x4>
    31de:	01 c0       	rjmp	.+2      	; 0x31e2 <strncpy+0x16>
    31e0:	1d 92       	st	X+, r1
    31e2:	41 50       	subi	r20, 0x01	; 1
    31e4:	50 40       	sbci	r21, 0x00	; 0
    31e6:	e0 f7       	brcc	.-8      	; 0x31e0 <strncpy+0x14>
    31e8:	08 95       	ret

000031ea <sprintf>:
    31ea:	ae e0       	ldi	r26, 0x0E	; 14
    31ec:	b0 e0       	ldi	r27, 0x00	; 0
    31ee:	eb ef       	ldi	r30, 0xFB	; 251
    31f0:	f8 e1       	ldi	r31, 0x18	; 24
    31f2:	0c 94 1a 1f 	jmp	0x3e34	; 0x3e34 <__prologue_saves__+0x1c>
    31f6:	0d 89       	ldd	r16, Y+21	; 0x15
    31f8:	1e 89       	ldd	r17, Y+22	; 0x16
    31fa:	86 e0       	ldi	r24, 0x06	; 6
    31fc:	8c 83       	std	Y+4, r24	; 0x04
    31fe:	1a 83       	std	Y+2, r17	; 0x02
    3200:	09 83       	std	Y+1, r16	; 0x01
    3202:	8f ef       	ldi	r24, 0xFF	; 255
    3204:	9f e7       	ldi	r25, 0x7F	; 127
    3206:	9e 83       	std	Y+6, r25	; 0x06
    3208:	8d 83       	std	Y+5, r24	; 0x05
    320a:	ae 01       	movw	r20, r28
    320c:	47 5e       	subi	r20, 0xE7	; 231
    320e:	5f 4f       	sbci	r21, 0xFF	; 255
    3210:	6f 89       	ldd	r22, Y+23	; 0x17
    3212:	78 8d       	ldd	r23, Y+24	; 0x18
    3214:	ce 01       	movw	r24, r28
    3216:	01 96       	adiw	r24, 0x01	; 1
    3218:	0e 94 30 19 	call	0x3260	; 0x3260 <vfprintf>
    321c:	ef 81       	ldd	r30, Y+7	; 0x07
    321e:	f8 85       	ldd	r31, Y+8	; 0x08
    3220:	e0 0f       	add	r30, r16
    3222:	f1 1f       	adc	r31, r17
    3224:	10 82       	st	Z, r1
    3226:	2e 96       	adiw	r28, 0x0e	; 14
    3228:	e4 e0       	ldi	r30, 0x04	; 4
    322a:	0c 94 36 1f 	jmp	0x3e6c	; 0x3e6c <__epilogue_restores__+0x1c>

0000322e <sscanf>:
    322e:	ae e0       	ldi	r26, 0x0E	; 14
    3230:	b0 e0       	ldi	r27, 0x00	; 0
    3232:	ed e1       	ldi	r30, 0x1D	; 29
    3234:	f9 e1       	ldi	r31, 0x19	; 25
    3236:	0c 94 1c 1f 	jmp	0x3e38	; 0x3e38 <__prologue_saves__+0x20>
    323a:	85 e0       	ldi	r24, 0x05	; 5
    323c:	8c 83       	std	Y+4, r24	; 0x04
    323e:	8b 89       	ldd	r24, Y+19	; 0x13
    3240:	9c 89       	ldd	r25, Y+20	; 0x14
    3242:	9a 83       	std	Y+2, r25	; 0x02
    3244:	89 83       	std	Y+1, r24	; 0x01
    3246:	ae 01       	movw	r20, r28
    3248:	49 5e       	subi	r20, 0xE9	; 233
    324a:	5f 4f       	sbci	r21, 0xFF	; 255
    324c:	6d 89       	ldd	r22, Y+21	; 0x15
    324e:	7e 89       	ldd	r23, Y+22	; 0x16
    3250:	ce 01       	movw	r24, r28
    3252:	01 96       	adiw	r24, 0x01	; 1
    3254:	0e 94 ad 1c 	call	0x395a	; 0x395a <vfscanf>
    3258:	2e 96       	adiw	r28, 0x0e	; 14
    325a:	e2 e0       	ldi	r30, 0x02	; 2
    325c:	0c 94 38 1f 	jmp	0x3e70	; 0x3e70 <__epilogue_restores__+0x20>

00003260 <vfprintf>:
    3260:	ab e0       	ldi	r26, 0x0B	; 11
    3262:	b0 e0       	ldi	r27, 0x00	; 0
    3264:	e6 e3       	ldi	r30, 0x36	; 54
    3266:	f9 e1       	ldi	r31, 0x19	; 25
    3268:	0c 94 0c 1f 	jmp	0x3e18	; 0x3e18 <__prologue_saves__>
    326c:	6c 01       	movw	r12, r24
    326e:	7b 01       	movw	r14, r22
    3270:	8a 01       	movw	r16, r20
    3272:	fc 01       	movw	r30, r24
    3274:	17 82       	std	Z+7, r1	; 0x07
    3276:	16 82       	std	Z+6, r1	; 0x06
    3278:	83 81       	ldd	r24, Z+3	; 0x03
    327a:	81 ff       	sbrs	r24, 1
    327c:	cc c1       	rjmp	.+920    	; 0x3616 <vfprintf+0x3b6>
    327e:	ce 01       	movw	r24, r28
    3280:	01 96       	adiw	r24, 0x01	; 1
    3282:	3c 01       	movw	r6, r24
    3284:	f6 01       	movw	r30, r12
    3286:	93 81       	ldd	r25, Z+3	; 0x03
    3288:	f7 01       	movw	r30, r14
    328a:	93 fd       	sbrc	r25, 3
    328c:	85 91       	lpm	r24, Z+
    328e:	93 ff       	sbrs	r25, 3
    3290:	81 91       	ld	r24, Z+
    3292:	7f 01       	movw	r14, r30
    3294:	88 23       	and	r24, r24
    3296:	09 f4       	brne	.+2      	; 0x329a <vfprintf+0x3a>
    3298:	ba c1       	rjmp	.+884    	; 0x360e <vfprintf+0x3ae>
    329a:	85 32       	cpi	r24, 0x25	; 37
    329c:	39 f4       	brne	.+14     	; 0x32ac <vfprintf+0x4c>
    329e:	93 fd       	sbrc	r25, 3
    32a0:	85 91       	lpm	r24, Z+
    32a2:	93 ff       	sbrs	r25, 3
    32a4:	81 91       	ld	r24, Z+
    32a6:	7f 01       	movw	r14, r30
    32a8:	85 32       	cpi	r24, 0x25	; 37
    32aa:	29 f4       	brne	.+10     	; 0x32b6 <vfprintf+0x56>
    32ac:	b6 01       	movw	r22, r12
    32ae:	90 e0       	ldi	r25, 0x00	; 0
    32b0:	0e 94 20 1e 	call	0x3c40	; 0x3c40 <fputc>
    32b4:	e7 cf       	rjmp	.-50     	; 0x3284 <vfprintf+0x24>
    32b6:	91 2c       	mov	r9, r1
    32b8:	21 2c       	mov	r2, r1
    32ba:	31 2c       	mov	r3, r1
    32bc:	ff e1       	ldi	r31, 0x1F	; 31
    32be:	f3 15       	cp	r31, r3
    32c0:	d8 f0       	brcs	.+54     	; 0x32f8 <vfprintf+0x98>
    32c2:	8b 32       	cpi	r24, 0x2B	; 43
    32c4:	79 f0       	breq	.+30     	; 0x32e4 <vfprintf+0x84>
    32c6:	38 f4       	brcc	.+14     	; 0x32d6 <vfprintf+0x76>
    32c8:	80 32       	cpi	r24, 0x20	; 32
    32ca:	79 f0       	breq	.+30     	; 0x32ea <vfprintf+0x8a>
    32cc:	83 32       	cpi	r24, 0x23	; 35
    32ce:	a1 f4       	brne	.+40     	; 0x32f8 <vfprintf+0x98>
    32d0:	23 2d       	mov	r18, r3
    32d2:	20 61       	ori	r18, 0x10	; 16
    32d4:	1d c0       	rjmp	.+58     	; 0x3310 <vfprintf+0xb0>
    32d6:	8d 32       	cpi	r24, 0x2D	; 45
    32d8:	61 f0       	breq	.+24     	; 0x32f2 <vfprintf+0x92>
    32da:	80 33       	cpi	r24, 0x30	; 48
    32dc:	69 f4       	brne	.+26     	; 0x32f8 <vfprintf+0x98>
    32de:	23 2d       	mov	r18, r3
    32e0:	21 60       	ori	r18, 0x01	; 1
    32e2:	16 c0       	rjmp	.+44     	; 0x3310 <vfprintf+0xb0>
    32e4:	83 2d       	mov	r24, r3
    32e6:	82 60       	ori	r24, 0x02	; 2
    32e8:	38 2e       	mov	r3, r24
    32ea:	e3 2d       	mov	r30, r3
    32ec:	e4 60       	ori	r30, 0x04	; 4
    32ee:	3e 2e       	mov	r3, r30
    32f0:	2a c0       	rjmp	.+84     	; 0x3346 <vfprintf+0xe6>
    32f2:	f3 2d       	mov	r31, r3
    32f4:	f8 60       	ori	r31, 0x08	; 8
    32f6:	1d c0       	rjmp	.+58     	; 0x3332 <vfprintf+0xd2>
    32f8:	37 fc       	sbrc	r3, 7
    32fa:	2d c0       	rjmp	.+90     	; 0x3356 <vfprintf+0xf6>
    32fc:	20 ed       	ldi	r18, 0xD0	; 208
    32fe:	28 0f       	add	r18, r24
    3300:	2a 30       	cpi	r18, 0x0A	; 10
    3302:	40 f0       	brcs	.+16     	; 0x3314 <vfprintf+0xb4>
    3304:	8e 32       	cpi	r24, 0x2E	; 46
    3306:	b9 f4       	brne	.+46     	; 0x3336 <vfprintf+0xd6>
    3308:	36 fc       	sbrc	r3, 6
    330a:	81 c1       	rjmp	.+770    	; 0x360e <vfprintf+0x3ae>
    330c:	23 2d       	mov	r18, r3
    330e:	20 64       	ori	r18, 0x40	; 64
    3310:	32 2e       	mov	r3, r18
    3312:	19 c0       	rjmp	.+50     	; 0x3346 <vfprintf+0xe6>
    3314:	36 fe       	sbrs	r3, 6
    3316:	06 c0       	rjmp	.+12     	; 0x3324 <vfprintf+0xc4>
    3318:	8a e0       	ldi	r24, 0x0A	; 10
    331a:	98 9e       	mul	r9, r24
    331c:	20 0d       	add	r18, r0
    331e:	11 24       	eor	r1, r1
    3320:	92 2e       	mov	r9, r18
    3322:	11 c0       	rjmp	.+34     	; 0x3346 <vfprintf+0xe6>
    3324:	ea e0       	ldi	r30, 0x0A	; 10
    3326:	2e 9e       	mul	r2, r30
    3328:	20 0d       	add	r18, r0
    332a:	11 24       	eor	r1, r1
    332c:	22 2e       	mov	r2, r18
    332e:	f3 2d       	mov	r31, r3
    3330:	f0 62       	ori	r31, 0x20	; 32
    3332:	3f 2e       	mov	r3, r31
    3334:	08 c0       	rjmp	.+16     	; 0x3346 <vfprintf+0xe6>
    3336:	8c 36       	cpi	r24, 0x6C	; 108
    3338:	21 f4       	brne	.+8      	; 0x3342 <vfprintf+0xe2>
    333a:	83 2d       	mov	r24, r3
    333c:	80 68       	ori	r24, 0x80	; 128
    333e:	38 2e       	mov	r3, r24
    3340:	02 c0       	rjmp	.+4      	; 0x3346 <vfprintf+0xe6>
    3342:	88 36       	cpi	r24, 0x68	; 104
    3344:	41 f4       	brne	.+16     	; 0x3356 <vfprintf+0xf6>
    3346:	f7 01       	movw	r30, r14
    3348:	93 fd       	sbrc	r25, 3
    334a:	85 91       	lpm	r24, Z+
    334c:	93 ff       	sbrs	r25, 3
    334e:	81 91       	ld	r24, Z+
    3350:	7f 01       	movw	r14, r30
    3352:	81 11       	cpse	r24, r1
    3354:	b3 cf       	rjmp	.-154    	; 0x32bc <vfprintf+0x5c>
    3356:	98 2f       	mov	r25, r24
    3358:	9f 7d       	andi	r25, 0xDF	; 223
    335a:	95 54       	subi	r25, 0x45	; 69
    335c:	93 30       	cpi	r25, 0x03	; 3
    335e:	28 f4       	brcc	.+10     	; 0x336a <vfprintf+0x10a>
    3360:	0c 5f       	subi	r16, 0xFC	; 252
    3362:	1f 4f       	sbci	r17, 0xFF	; 255
    3364:	9f e3       	ldi	r25, 0x3F	; 63
    3366:	99 83       	std	Y+1, r25	; 0x01
    3368:	0d c0       	rjmp	.+26     	; 0x3384 <vfprintf+0x124>
    336a:	83 36       	cpi	r24, 0x63	; 99
    336c:	31 f0       	breq	.+12     	; 0x337a <vfprintf+0x11a>
    336e:	83 37       	cpi	r24, 0x73	; 115
    3370:	71 f0       	breq	.+28     	; 0x338e <vfprintf+0x12e>
    3372:	83 35       	cpi	r24, 0x53	; 83
    3374:	09 f0       	breq	.+2      	; 0x3378 <vfprintf+0x118>
    3376:	59 c0       	rjmp	.+178    	; 0x342a <vfprintf+0x1ca>
    3378:	21 c0       	rjmp	.+66     	; 0x33bc <vfprintf+0x15c>
    337a:	f8 01       	movw	r30, r16
    337c:	80 81       	ld	r24, Z
    337e:	89 83       	std	Y+1, r24	; 0x01
    3380:	0e 5f       	subi	r16, 0xFE	; 254
    3382:	1f 4f       	sbci	r17, 0xFF	; 255
    3384:	88 24       	eor	r8, r8
    3386:	83 94       	inc	r8
    3388:	91 2c       	mov	r9, r1
    338a:	53 01       	movw	r10, r6
    338c:	13 c0       	rjmp	.+38     	; 0x33b4 <vfprintf+0x154>
    338e:	28 01       	movw	r4, r16
    3390:	f2 e0       	ldi	r31, 0x02	; 2
    3392:	4f 0e       	add	r4, r31
    3394:	51 1c       	adc	r5, r1
    3396:	f8 01       	movw	r30, r16
    3398:	a0 80       	ld	r10, Z
    339a:	b1 80       	ldd	r11, Z+1	; 0x01
    339c:	36 fe       	sbrs	r3, 6
    339e:	03 c0       	rjmp	.+6      	; 0x33a6 <vfprintf+0x146>
    33a0:	69 2d       	mov	r22, r9
    33a2:	70 e0       	ldi	r23, 0x00	; 0
    33a4:	02 c0       	rjmp	.+4      	; 0x33aa <vfprintf+0x14a>
    33a6:	6f ef       	ldi	r22, 0xFF	; 255
    33a8:	7f ef       	ldi	r23, 0xFF	; 255
    33aa:	c5 01       	movw	r24, r10
    33ac:	0e 94 d7 1d 	call	0x3bae	; 0x3bae <strnlen>
    33b0:	4c 01       	movw	r8, r24
    33b2:	82 01       	movw	r16, r4
    33b4:	f3 2d       	mov	r31, r3
    33b6:	ff 77       	andi	r31, 0x7F	; 127
    33b8:	3f 2e       	mov	r3, r31
    33ba:	16 c0       	rjmp	.+44     	; 0x33e8 <vfprintf+0x188>
    33bc:	28 01       	movw	r4, r16
    33be:	22 e0       	ldi	r18, 0x02	; 2
    33c0:	42 0e       	add	r4, r18
    33c2:	51 1c       	adc	r5, r1
    33c4:	f8 01       	movw	r30, r16
    33c6:	a0 80       	ld	r10, Z
    33c8:	b1 80       	ldd	r11, Z+1	; 0x01
    33ca:	36 fe       	sbrs	r3, 6
    33cc:	03 c0       	rjmp	.+6      	; 0x33d4 <vfprintf+0x174>
    33ce:	69 2d       	mov	r22, r9
    33d0:	70 e0       	ldi	r23, 0x00	; 0
    33d2:	02 c0       	rjmp	.+4      	; 0x33d8 <vfprintf+0x178>
    33d4:	6f ef       	ldi	r22, 0xFF	; 255
    33d6:	7f ef       	ldi	r23, 0xFF	; 255
    33d8:	c5 01       	movw	r24, r10
    33da:	0e 94 cc 1d 	call	0x3b98	; 0x3b98 <strnlen_P>
    33de:	4c 01       	movw	r8, r24
    33e0:	f3 2d       	mov	r31, r3
    33e2:	f0 68       	ori	r31, 0x80	; 128
    33e4:	3f 2e       	mov	r3, r31
    33e6:	82 01       	movw	r16, r4
    33e8:	33 fc       	sbrc	r3, 3
    33ea:	1b c0       	rjmp	.+54     	; 0x3422 <vfprintf+0x1c2>
    33ec:	82 2d       	mov	r24, r2
    33ee:	90 e0       	ldi	r25, 0x00	; 0
    33f0:	88 16       	cp	r8, r24
    33f2:	99 06       	cpc	r9, r25
    33f4:	b0 f4       	brcc	.+44     	; 0x3422 <vfprintf+0x1c2>
    33f6:	b6 01       	movw	r22, r12
    33f8:	80 e2       	ldi	r24, 0x20	; 32
    33fa:	90 e0       	ldi	r25, 0x00	; 0
    33fc:	0e 94 20 1e 	call	0x3c40	; 0x3c40 <fputc>
    3400:	2a 94       	dec	r2
    3402:	f4 cf       	rjmp	.-24     	; 0x33ec <vfprintf+0x18c>
    3404:	f5 01       	movw	r30, r10
    3406:	37 fc       	sbrc	r3, 7
    3408:	85 91       	lpm	r24, Z+
    340a:	37 fe       	sbrs	r3, 7
    340c:	81 91       	ld	r24, Z+
    340e:	5f 01       	movw	r10, r30
    3410:	b6 01       	movw	r22, r12
    3412:	90 e0       	ldi	r25, 0x00	; 0
    3414:	0e 94 20 1e 	call	0x3c40	; 0x3c40 <fputc>
    3418:	21 10       	cpse	r2, r1
    341a:	2a 94       	dec	r2
    341c:	21 e0       	ldi	r18, 0x01	; 1
    341e:	82 1a       	sub	r8, r18
    3420:	91 08       	sbc	r9, r1
    3422:	81 14       	cp	r8, r1
    3424:	91 04       	cpc	r9, r1
    3426:	71 f7       	brne	.-36     	; 0x3404 <vfprintf+0x1a4>
    3428:	e8 c0       	rjmp	.+464    	; 0x35fa <vfprintf+0x39a>
    342a:	84 36       	cpi	r24, 0x64	; 100
    342c:	11 f0       	breq	.+4      	; 0x3432 <vfprintf+0x1d2>
    342e:	89 36       	cpi	r24, 0x69	; 105
    3430:	41 f5       	brne	.+80     	; 0x3482 <vfprintf+0x222>
    3432:	f8 01       	movw	r30, r16
    3434:	37 fe       	sbrs	r3, 7
    3436:	07 c0       	rjmp	.+14     	; 0x3446 <vfprintf+0x1e6>
    3438:	60 81       	ld	r22, Z
    343a:	71 81       	ldd	r23, Z+1	; 0x01
    343c:	82 81       	ldd	r24, Z+2	; 0x02
    343e:	93 81       	ldd	r25, Z+3	; 0x03
    3440:	0c 5f       	subi	r16, 0xFC	; 252
    3442:	1f 4f       	sbci	r17, 0xFF	; 255
    3444:	08 c0       	rjmp	.+16     	; 0x3456 <vfprintf+0x1f6>
    3446:	60 81       	ld	r22, Z
    3448:	71 81       	ldd	r23, Z+1	; 0x01
    344a:	07 2e       	mov	r0, r23
    344c:	00 0c       	add	r0, r0
    344e:	88 0b       	sbc	r24, r24
    3450:	99 0b       	sbc	r25, r25
    3452:	0e 5f       	subi	r16, 0xFE	; 254
    3454:	1f 4f       	sbci	r17, 0xFF	; 255
    3456:	f3 2d       	mov	r31, r3
    3458:	ff 76       	andi	r31, 0x6F	; 111
    345a:	3f 2e       	mov	r3, r31
    345c:	97 ff       	sbrs	r25, 7
    345e:	09 c0       	rjmp	.+18     	; 0x3472 <vfprintf+0x212>
    3460:	90 95       	com	r25
    3462:	80 95       	com	r24
    3464:	70 95       	com	r23
    3466:	61 95       	neg	r22
    3468:	7f 4f       	sbci	r23, 0xFF	; 255
    346a:	8f 4f       	sbci	r24, 0xFF	; 255
    346c:	9f 4f       	sbci	r25, 0xFF	; 255
    346e:	f0 68       	ori	r31, 0x80	; 128
    3470:	3f 2e       	mov	r3, r31
    3472:	2a e0       	ldi	r18, 0x0A	; 10
    3474:	30 e0       	ldi	r19, 0x00	; 0
    3476:	a3 01       	movw	r20, r6
    3478:	0e 94 75 1e 	call	0x3cea	; 0x3cea <__ultoa_invert>
    347c:	88 2e       	mov	r8, r24
    347e:	86 18       	sub	r8, r6
    3480:	45 c0       	rjmp	.+138    	; 0x350c <vfprintf+0x2ac>
    3482:	85 37       	cpi	r24, 0x75	; 117
    3484:	31 f4       	brne	.+12     	; 0x3492 <vfprintf+0x232>
    3486:	23 2d       	mov	r18, r3
    3488:	2f 7e       	andi	r18, 0xEF	; 239
    348a:	b2 2e       	mov	r11, r18
    348c:	2a e0       	ldi	r18, 0x0A	; 10
    348e:	30 e0       	ldi	r19, 0x00	; 0
    3490:	25 c0       	rjmp	.+74     	; 0x34dc <vfprintf+0x27c>
    3492:	93 2d       	mov	r25, r3
    3494:	99 7f       	andi	r25, 0xF9	; 249
    3496:	b9 2e       	mov	r11, r25
    3498:	8f 36       	cpi	r24, 0x6F	; 111
    349a:	c1 f0       	breq	.+48     	; 0x34cc <vfprintf+0x26c>
    349c:	18 f4       	brcc	.+6      	; 0x34a4 <vfprintf+0x244>
    349e:	88 35       	cpi	r24, 0x58	; 88
    34a0:	79 f0       	breq	.+30     	; 0x34c0 <vfprintf+0x260>
    34a2:	b5 c0       	rjmp	.+362    	; 0x360e <vfprintf+0x3ae>
    34a4:	80 37       	cpi	r24, 0x70	; 112
    34a6:	19 f0       	breq	.+6      	; 0x34ae <vfprintf+0x24e>
    34a8:	88 37       	cpi	r24, 0x78	; 120
    34aa:	21 f0       	breq	.+8      	; 0x34b4 <vfprintf+0x254>
    34ac:	b0 c0       	rjmp	.+352    	; 0x360e <vfprintf+0x3ae>
    34ae:	e9 2f       	mov	r30, r25
    34b0:	e0 61       	ori	r30, 0x10	; 16
    34b2:	be 2e       	mov	r11, r30
    34b4:	b4 fe       	sbrs	r11, 4
    34b6:	0d c0       	rjmp	.+26     	; 0x34d2 <vfprintf+0x272>
    34b8:	fb 2d       	mov	r31, r11
    34ba:	f4 60       	ori	r31, 0x04	; 4
    34bc:	bf 2e       	mov	r11, r31
    34be:	09 c0       	rjmp	.+18     	; 0x34d2 <vfprintf+0x272>
    34c0:	34 fe       	sbrs	r3, 4
    34c2:	0a c0       	rjmp	.+20     	; 0x34d8 <vfprintf+0x278>
    34c4:	29 2f       	mov	r18, r25
    34c6:	26 60       	ori	r18, 0x06	; 6
    34c8:	b2 2e       	mov	r11, r18
    34ca:	06 c0       	rjmp	.+12     	; 0x34d8 <vfprintf+0x278>
    34cc:	28 e0       	ldi	r18, 0x08	; 8
    34ce:	30 e0       	ldi	r19, 0x00	; 0
    34d0:	05 c0       	rjmp	.+10     	; 0x34dc <vfprintf+0x27c>
    34d2:	20 e1       	ldi	r18, 0x10	; 16
    34d4:	30 e0       	ldi	r19, 0x00	; 0
    34d6:	02 c0       	rjmp	.+4      	; 0x34dc <vfprintf+0x27c>
    34d8:	20 e1       	ldi	r18, 0x10	; 16
    34da:	32 e0       	ldi	r19, 0x02	; 2
    34dc:	f8 01       	movw	r30, r16
    34de:	b7 fe       	sbrs	r11, 7
    34e0:	07 c0       	rjmp	.+14     	; 0x34f0 <vfprintf+0x290>
    34e2:	60 81       	ld	r22, Z
    34e4:	71 81       	ldd	r23, Z+1	; 0x01
    34e6:	82 81       	ldd	r24, Z+2	; 0x02
    34e8:	93 81       	ldd	r25, Z+3	; 0x03
    34ea:	0c 5f       	subi	r16, 0xFC	; 252
    34ec:	1f 4f       	sbci	r17, 0xFF	; 255
    34ee:	06 c0       	rjmp	.+12     	; 0x34fc <vfprintf+0x29c>
    34f0:	60 81       	ld	r22, Z
    34f2:	71 81       	ldd	r23, Z+1	; 0x01
    34f4:	80 e0       	ldi	r24, 0x00	; 0
    34f6:	90 e0       	ldi	r25, 0x00	; 0
    34f8:	0e 5f       	subi	r16, 0xFE	; 254
    34fa:	1f 4f       	sbci	r17, 0xFF	; 255
    34fc:	a3 01       	movw	r20, r6
    34fe:	0e 94 75 1e 	call	0x3cea	; 0x3cea <__ultoa_invert>
    3502:	88 2e       	mov	r8, r24
    3504:	86 18       	sub	r8, r6
    3506:	fb 2d       	mov	r31, r11
    3508:	ff 77       	andi	r31, 0x7F	; 127
    350a:	3f 2e       	mov	r3, r31
    350c:	36 fe       	sbrs	r3, 6
    350e:	0d c0       	rjmp	.+26     	; 0x352a <vfprintf+0x2ca>
    3510:	23 2d       	mov	r18, r3
    3512:	2e 7f       	andi	r18, 0xFE	; 254
    3514:	a2 2e       	mov	r10, r18
    3516:	89 14       	cp	r8, r9
    3518:	58 f4       	brcc	.+22     	; 0x3530 <vfprintf+0x2d0>
    351a:	34 fe       	sbrs	r3, 4
    351c:	0b c0       	rjmp	.+22     	; 0x3534 <vfprintf+0x2d4>
    351e:	32 fc       	sbrc	r3, 2
    3520:	09 c0       	rjmp	.+18     	; 0x3534 <vfprintf+0x2d4>
    3522:	83 2d       	mov	r24, r3
    3524:	8e 7e       	andi	r24, 0xEE	; 238
    3526:	a8 2e       	mov	r10, r24
    3528:	05 c0       	rjmp	.+10     	; 0x3534 <vfprintf+0x2d4>
    352a:	b8 2c       	mov	r11, r8
    352c:	a3 2c       	mov	r10, r3
    352e:	03 c0       	rjmp	.+6      	; 0x3536 <vfprintf+0x2d6>
    3530:	b8 2c       	mov	r11, r8
    3532:	01 c0       	rjmp	.+2      	; 0x3536 <vfprintf+0x2d6>
    3534:	b9 2c       	mov	r11, r9
    3536:	a4 fe       	sbrs	r10, 4
    3538:	0f c0       	rjmp	.+30     	; 0x3558 <vfprintf+0x2f8>
    353a:	fe 01       	movw	r30, r28
    353c:	e8 0d       	add	r30, r8
    353e:	f1 1d       	adc	r31, r1
    3540:	80 81       	ld	r24, Z
    3542:	80 33       	cpi	r24, 0x30	; 48
    3544:	21 f4       	brne	.+8      	; 0x354e <vfprintf+0x2ee>
    3546:	9a 2d       	mov	r25, r10
    3548:	99 7e       	andi	r25, 0xE9	; 233
    354a:	a9 2e       	mov	r10, r25
    354c:	09 c0       	rjmp	.+18     	; 0x3560 <vfprintf+0x300>
    354e:	a2 fe       	sbrs	r10, 2
    3550:	06 c0       	rjmp	.+12     	; 0x355e <vfprintf+0x2fe>
    3552:	b3 94       	inc	r11
    3554:	b3 94       	inc	r11
    3556:	04 c0       	rjmp	.+8      	; 0x3560 <vfprintf+0x300>
    3558:	8a 2d       	mov	r24, r10
    355a:	86 78       	andi	r24, 0x86	; 134
    355c:	09 f0       	breq	.+2      	; 0x3560 <vfprintf+0x300>
    355e:	b3 94       	inc	r11
    3560:	a3 fc       	sbrc	r10, 3
    3562:	11 c0       	rjmp	.+34     	; 0x3586 <vfprintf+0x326>
    3564:	a0 fe       	sbrs	r10, 0
    3566:	06 c0       	rjmp	.+12     	; 0x3574 <vfprintf+0x314>
    3568:	b2 14       	cp	r11, r2
    356a:	88 f4       	brcc	.+34     	; 0x358e <vfprintf+0x32e>
    356c:	28 0c       	add	r2, r8
    356e:	92 2c       	mov	r9, r2
    3570:	9b 18       	sub	r9, r11
    3572:	0e c0       	rjmp	.+28     	; 0x3590 <vfprintf+0x330>
    3574:	b2 14       	cp	r11, r2
    3576:	60 f4       	brcc	.+24     	; 0x3590 <vfprintf+0x330>
    3578:	b6 01       	movw	r22, r12
    357a:	80 e2       	ldi	r24, 0x20	; 32
    357c:	90 e0       	ldi	r25, 0x00	; 0
    357e:	0e 94 20 1e 	call	0x3c40	; 0x3c40 <fputc>
    3582:	b3 94       	inc	r11
    3584:	f7 cf       	rjmp	.-18     	; 0x3574 <vfprintf+0x314>
    3586:	b2 14       	cp	r11, r2
    3588:	18 f4       	brcc	.+6      	; 0x3590 <vfprintf+0x330>
    358a:	2b 18       	sub	r2, r11
    358c:	02 c0       	rjmp	.+4      	; 0x3592 <vfprintf+0x332>
    358e:	98 2c       	mov	r9, r8
    3590:	21 2c       	mov	r2, r1
    3592:	a4 fe       	sbrs	r10, 4
    3594:	10 c0       	rjmp	.+32     	; 0x35b6 <vfprintf+0x356>
    3596:	b6 01       	movw	r22, r12
    3598:	80 e3       	ldi	r24, 0x30	; 48
    359a:	90 e0       	ldi	r25, 0x00	; 0
    359c:	0e 94 20 1e 	call	0x3c40	; 0x3c40 <fputc>
    35a0:	a2 fe       	sbrs	r10, 2
    35a2:	17 c0       	rjmp	.+46     	; 0x35d2 <vfprintf+0x372>
    35a4:	a1 fc       	sbrc	r10, 1
    35a6:	03 c0       	rjmp	.+6      	; 0x35ae <vfprintf+0x34e>
    35a8:	88 e7       	ldi	r24, 0x78	; 120
    35aa:	90 e0       	ldi	r25, 0x00	; 0
    35ac:	02 c0       	rjmp	.+4      	; 0x35b2 <vfprintf+0x352>
    35ae:	88 e5       	ldi	r24, 0x58	; 88
    35b0:	90 e0       	ldi	r25, 0x00	; 0
    35b2:	b6 01       	movw	r22, r12
    35b4:	0c c0       	rjmp	.+24     	; 0x35ce <vfprintf+0x36e>
    35b6:	8a 2d       	mov	r24, r10
    35b8:	86 78       	andi	r24, 0x86	; 134
    35ba:	59 f0       	breq	.+22     	; 0x35d2 <vfprintf+0x372>
    35bc:	a1 fe       	sbrs	r10, 1
    35be:	02 c0       	rjmp	.+4      	; 0x35c4 <vfprintf+0x364>
    35c0:	8b e2       	ldi	r24, 0x2B	; 43
    35c2:	01 c0       	rjmp	.+2      	; 0x35c6 <vfprintf+0x366>
    35c4:	80 e2       	ldi	r24, 0x20	; 32
    35c6:	a7 fc       	sbrc	r10, 7
    35c8:	8d e2       	ldi	r24, 0x2D	; 45
    35ca:	b6 01       	movw	r22, r12
    35cc:	90 e0       	ldi	r25, 0x00	; 0
    35ce:	0e 94 20 1e 	call	0x3c40	; 0x3c40 <fputc>
    35d2:	89 14       	cp	r8, r9
    35d4:	38 f4       	brcc	.+14     	; 0x35e4 <vfprintf+0x384>
    35d6:	b6 01       	movw	r22, r12
    35d8:	80 e3       	ldi	r24, 0x30	; 48
    35da:	90 e0       	ldi	r25, 0x00	; 0
    35dc:	0e 94 20 1e 	call	0x3c40	; 0x3c40 <fputc>
    35e0:	9a 94       	dec	r9
    35e2:	f7 cf       	rjmp	.-18     	; 0x35d2 <vfprintf+0x372>
    35e4:	8a 94       	dec	r8
    35e6:	f3 01       	movw	r30, r6
    35e8:	e8 0d       	add	r30, r8
    35ea:	f1 1d       	adc	r31, r1
    35ec:	80 81       	ld	r24, Z
    35ee:	b6 01       	movw	r22, r12
    35f0:	90 e0       	ldi	r25, 0x00	; 0
    35f2:	0e 94 20 1e 	call	0x3c40	; 0x3c40 <fputc>
    35f6:	81 10       	cpse	r8, r1
    35f8:	f5 cf       	rjmp	.-22     	; 0x35e4 <vfprintf+0x384>
    35fa:	22 20       	and	r2, r2
    35fc:	09 f4       	brne	.+2      	; 0x3600 <vfprintf+0x3a0>
    35fe:	42 ce       	rjmp	.-892    	; 0x3284 <vfprintf+0x24>
    3600:	b6 01       	movw	r22, r12
    3602:	80 e2       	ldi	r24, 0x20	; 32
    3604:	90 e0       	ldi	r25, 0x00	; 0
    3606:	0e 94 20 1e 	call	0x3c40	; 0x3c40 <fputc>
    360a:	2a 94       	dec	r2
    360c:	f6 cf       	rjmp	.-20     	; 0x35fa <vfprintf+0x39a>
    360e:	f6 01       	movw	r30, r12
    3610:	86 81       	ldd	r24, Z+6	; 0x06
    3612:	97 81       	ldd	r25, Z+7	; 0x07
    3614:	02 c0       	rjmp	.+4      	; 0x361a <vfprintf+0x3ba>
    3616:	8f ef       	ldi	r24, 0xFF	; 255
    3618:	9f ef       	ldi	r25, 0xFF	; 255
    361a:	2b 96       	adiw	r28, 0x0b	; 11
    361c:	e2 e1       	ldi	r30, 0x12	; 18
    361e:	0c 94 28 1f 	jmp	0x3e50	; 0x3e50 <__epilogue_restores__>

00003622 <putval>:
    3622:	20 fd       	sbrc	r18, 0
    3624:	09 c0       	rjmp	.+18     	; 0x3638 <putval+0x16>
    3626:	fc 01       	movw	r30, r24
    3628:	23 fd       	sbrc	r18, 3
    362a:	05 c0       	rjmp	.+10     	; 0x3636 <putval+0x14>
    362c:	22 ff       	sbrs	r18, 2
    362e:	02 c0       	rjmp	.+4      	; 0x3634 <putval+0x12>
    3630:	73 83       	std	Z+3, r23	; 0x03
    3632:	62 83       	std	Z+2, r22	; 0x02
    3634:	51 83       	std	Z+1, r21	; 0x01
    3636:	40 83       	st	Z, r20
    3638:	08 95       	ret

0000363a <mulacc>:
    363a:	44 fd       	sbrc	r20, 4
    363c:	17 c0       	rjmp	.+46     	; 0x366c <mulacc+0x32>
    363e:	46 fd       	sbrc	r20, 6
    3640:	17 c0       	rjmp	.+46     	; 0x3670 <mulacc+0x36>
    3642:	ab 01       	movw	r20, r22
    3644:	bc 01       	movw	r22, r24
    3646:	da 01       	movw	r26, r20
    3648:	fb 01       	movw	r30, r22
    364a:	aa 0f       	add	r26, r26
    364c:	bb 1f       	adc	r27, r27
    364e:	ee 1f       	adc	r30, r30
    3650:	ff 1f       	adc	r31, r31
    3652:	10 94       	com	r1
    3654:	d1 f7       	brne	.-12     	; 0x364a <mulacc+0x10>
    3656:	4a 0f       	add	r20, r26
    3658:	5b 1f       	adc	r21, r27
    365a:	6e 1f       	adc	r22, r30
    365c:	7f 1f       	adc	r23, r31
    365e:	cb 01       	movw	r24, r22
    3660:	ba 01       	movw	r22, r20
    3662:	66 0f       	add	r22, r22
    3664:	77 1f       	adc	r23, r23
    3666:	88 1f       	adc	r24, r24
    3668:	99 1f       	adc	r25, r25
    366a:	09 c0       	rjmp	.+18     	; 0x367e <mulacc+0x44>
    366c:	33 e0       	ldi	r19, 0x03	; 3
    366e:	01 c0       	rjmp	.+2      	; 0x3672 <mulacc+0x38>
    3670:	34 e0       	ldi	r19, 0x04	; 4
    3672:	66 0f       	add	r22, r22
    3674:	77 1f       	adc	r23, r23
    3676:	88 1f       	adc	r24, r24
    3678:	99 1f       	adc	r25, r25
    367a:	31 50       	subi	r19, 0x01	; 1
    367c:	d1 f7       	brne	.-12     	; 0x3672 <mulacc+0x38>
    367e:	62 0f       	add	r22, r18
    3680:	71 1d       	adc	r23, r1
    3682:	81 1d       	adc	r24, r1
    3684:	91 1d       	adc	r25, r1
    3686:	08 95       	ret

00003688 <skip_spaces>:
    3688:	0f 93       	push	r16
    368a:	1f 93       	push	r17
    368c:	cf 93       	push	r28
    368e:	df 93       	push	r29
    3690:	8c 01       	movw	r16, r24
    3692:	c8 01       	movw	r24, r16
    3694:	0e 94 e2 1d 	call	0x3bc4	; 0x3bc4 <fgetc>
    3698:	ec 01       	movw	r28, r24
    369a:	97 fd       	sbrc	r25, 7
    369c:	08 c0       	rjmp	.+16     	; 0x36ae <skip_spaces+0x26>
    369e:	0e 94 9d 18 	call	0x313a	; 0x313a <isspace>
    36a2:	89 2b       	or	r24, r25
    36a4:	b1 f7       	brne	.-20     	; 0x3692 <skip_spaces+0xa>
    36a6:	b8 01       	movw	r22, r16
    36a8:	ce 01       	movw	r24, r28
    36aa:	0e 94 5c 1e 	call	0x3cb8	; 0x3cb8 <ungetc>
    36ae:	ce 01       	movw	r24, r28
    36b0:	df 91       	pop	r29
    36b2:	cf 91       	pop	r28
    36b4:	1f 91       	pop	r17
    36b6:	0f 91       	pop	r16
    36b8:	08 95       	ret

000036ba <conv_int>:
    36ba:	8f 92       	push	r8
    36bc:	9f 92       	push	r9
    36be:	af 92       	push	r10
    36c0:	bf 92       	push	r11
    36c2:	ef 92       	push	r14
    36c4:	ff 92       	push	r15
    36c6:	0f 93       	push	r16
    36c8:	1f 93       	push	r17
    36ca:	cf 93       	push	r28
    36cc:	df 93       	push	r29
    36ce:	8c 01       	movw	r16, r24
    36d0:	d6 2f       	mov	r29, r22
    36d2:	7a 01       	movw	r14, r20
    36d4:	b2 2e       	mov	r11, r18
    36d6:	0e 94 e2 1d 	call	0x3bc4	; 0x3bc4 <fgetc>
    36da:	9c 01       	movw	r18, r24
    36dc:	33 27       	eor	r19, r19
    36de:	2b 32       	cpi	r18, 0x2B	; 43
    36e0:	31 05       	cpc	r19, r1
    36e2:	31 f0       	breq	.+12     	; 0x36f0 <conv_int+0x36>
    36e4:	2d 32       	cpi	r18, 0x2D	; 45
    36e6:	31 05       	cpc	r19, r1
    36e8:	61 f4       	brne	.+24     	; 0x3702 <conv_int+0x48>
    36ea:	8b 2d       	mov	r24, r11
    36ec:	80 68       	ori	r24, 0x80	; 128
    36ee:	b8 2e       	mov	r11, r24
    36f0:	d1 50       	subi	r29, 0x01	; 1
    36f2:	11 f4       	brne	.+4      	; 0x36f8 <conv_int+0x3e>
    36f4:	80 e0       	ldi	r24, 0x00	; 0
    36f6:	68 c0       	rjmp	.+208    	; 0x37c8 <conv_int+0x10e>
    36f8:	c8 01       	movw	r24, r16
    36fa:	0e 94 e2 1d 	call	0x3bc4	; 0x3bc4 <fgetc>
    36fe:	97 fd       	sbrc	r25, 7
    3700:	f9 cf       	rjmp	.-14     	; 0x36f4 <conv_int+0x3a>
    3702:	cb 2d       	mov	r28, r11
    3704:	cd 7f       	andi	r28, 0xFD	; 253
    3706:	2b 2d       	mov	r18, r11
    3708:	20 73       	andi	r18, 0x30	; 48
    370a:	09 f5       	brne	.+66     	; 0x374e <conv_int+0x94>
    370c:	80 33       	cpi	r24, 0x30	; 48
    370e:	f9 f4       	brne	.+62     	; 0x374e <conv_int+0x94>
    3710:	aa 24       	eor	r10, r10
    3712:	aa 94       	dec	r10
    3714:	ad 0e       	add	r10, r29
    3716:	09 f4       	brne	.+2      	; 0x371a <conv_int+0x60>
    3718:	43 c0       	rjmp	.+134    	; 0x37a0 <conv_int+0xe6>
    371a:	c8 01       	movw	r24, r16
    371c:	0e 94 e2 1d 	call	0x3bc4	; 0x3bc4 <fgetc>
    3720:	97 fd       	sbrc	r25, 7
    3722:	3e c0       	rjmp	.+124    	; 0x37a0 <conv_int+0xe6>
    3724:	9c 01       	movw	r18, r24
    3726:	2f 7d       	andi	r18, 0xDF	; 223
    3728:	33 27       	eor	r19, r19
    372a:	28 35       	cpi	r18, 0x58	; 88
    372c:	31 05       	cpc	r19, r1
    372e:	49 f4       	brne	.+18     	; 0x3742 <conv_int+0x88>
    3730:	c2 64       	ori	r28, 0x42	; 66
    3732:	d2 50       	subi	r29, 0x02	; 2
    3734:	a9 f1       	breq	.+106    	; 0x37a0 <conv_int+0xe6>
    3736:	c8 01       	movw	r24, r16
    3738:	0e 94 e2 1d 	call	0x3bc4	; 0x3bc4 <fgetc>
    373c:	97 ff       	sbrs	r25, 7
    373e:	07 c0       	rjmp	.+14     	; 0x374e <conv_int+0x94>
    3740:	2f c0       	rjmp	.+94     	; 0x37a0 <conv_int+0xe6>
    3742:	b6 fe       	sbrs	r11, 6
    3744:	02 c0       	rjmp	.+4      	; 0x374a <conv_int+0x90>
    3746:	c2 60       	ori	r28, 0x02	; 2
    3748:	01 c0       	rjmp	.+2      	; 0x374c <conv_int+0x92>
    374a:	c2 61       	ori	r28, 0x12	; 18
    374c:	da 2d       	mov	r29, r10
    374e:	81 2c       	mov	r8, r1
    3750:	91 2c       	mov	r9, r1
    3752:	54 01       	movw	r10, r8
    3754:	20 ed       	ldi	r18, 0xD0	; 208
    3756:	28 0f       	add	r18, r24
    3758:	28 30       	cpi	r18, 0x08	; 8
    375a:	80 f0       	brcs	.+32     	; 0x377c <conv_int+0xc2>
    375c:	c4 ff       	sbrs	r28, 4
    375e:	04 c0       	rjmp	.+8      	; 0x3768 <conv_int+0xae>
    3760:	b8 01       	movw	r22, r16
    3762:	0e 94 5c 1e 	call	0x3cb8	; 0x3cb8 <ungetc>
    3766:	19 c0       	rjmp	.+50     	; 0x379a <conv_int+0xe0>
    3768:	2a 30       	cpi	r18, 0x0A	; 10
    376a:	40 f0       	brcs	.+16     	; 0x377c <conv_int+0xc2>
    376c:	c6 ff       	sbrs	r28, 6
    376e:	f8 cf       	rjmp	.-16     	; 0x3760 <conv_int+0xa6>
    3770:	2f 7d       	andi	r18, 0xDF	; 223
    3772:	3f ee       	ldi	r19, 0xEF	; 239
    3774:	32 0f       	add	r19, r18
    3776:	36 30       	cpi	r19, 0x06	; 6
    3778:	98 f7       	brcc	.-26     	; 0x3760 <conv_int+0xa6>
    377a:	27 50       	subi	r18, 0x07	; 7
    377c:	4c 2f       	mov	r20, r28
    377e:	c5 01       	movw	r24, r10
    3780:	b4 01       	movw	r22, r8
    3782:	0e 94 1d 1b 	call	0x363a	; 0x363a <mulacc>
    3786:	4b 01       	movw	r8, r22
    3788:	5c 01       	movw	r10, r24
    378a:	c2 60       	ori	r28, 0x02	; 2
    378c:	d1 50       	subi	r29, 0x01	; 1
    378e:	59 f0       	breq	.+22     	; 0x37a6 <conv_int+0xec>
    3790:	c8 01       	movw	r24, r16
    3792:	0e 94 e2 1d 	call	0x3bc4	; 0x3bc4 <fgetc>
    3796:	97 ff       	sbrs	r25, 7
    3798:	dd cf       	rjmp	.-70     	; 0x3754 <conv_int+0x9a>
    379a:	c1 fd       	sbrc	r28, 1
    379c:	04 c0       	rjmp	.+8      	; 0x37a6 <conv_int+0xec>
    379e:	aa cf       	rjmp	.-172    	; 0x36f4 <conv_int+0x3a>
    37a0:	81 2c       	mov	r8, r1
    37a2:	91 2c       	mov	r9, r1
    37a4:	54 01       	movw	r10, r8
    37a6:	c7 ff       	sbrs	r28, 7
    37a8:	08 c0       	rjmp	.+16     	; 0x37ba <conv_int+0x100>
    37aa:	b0 94       	com	r11
    37ac:	a0 94       	com	r10
    37ae:	90 94       	com	r9
    37b0:	80 94       	com	r8
    37b2:	81 1c       	adc	r8, r1
    37b4:	91 1c       	adc	r9, r1
    37b6:	a1 1c       	adc	r10, r1
    37b8:	b1 1c       	adc	r11, r1
    37ba:	2c 2f       	mov	r18, r28
    37bc:	b5 01       	movw	r22, r10
    37be:	a4 01       	movw	r20, r8
    37c0:	c7 01       	movw	r24, r14
    37c2:	0e 94 11 1b 	call	0x3622	; 0x3622 <putval>
    37c6:	81 e0       	ldi	r24, 0x01	; 1
    37c8:	df 91       	pop	r29
    37ca:	cf 91       	pop	r28
    37cc:	1f 91       	pop	r17
    37ce:	0f 91       	pop	r16
    37d0:	ff 90       	pop	r15
    37d2:	ef 90       	pop	r14
    37d4:	bf 90       	pop	r11
    37d6:	af 90       	pop	r10
    37d8:	9f 90       	pop	r9
    37da:	8f 90       	pop	r8
    37dc:	08 95       	ret

000037de <conv_brk>:
    37de:	a0 e2       	ldi	r26, 0x20	; 32
    37e0:	b0 e0       	ldi	r27, 0x00	; 0
    37e2:	e5 ef       	ldi	r30, 0xF5	; 245
    37e4:	fb e1       	ldi	r31, 0x1B	; 27
    37e6:	0c 94 0f 1f 	jmp	0x3e1e	; 0x3e1e <__prologue_saves__+0x6>
    37ea:	5c 01       	movw	r10, r24
    37ec:	96 2e       	mov	r9, r22
    37ee:	7a 01       	movw	r14, r20
    37f0:	f9 01       	movw	r30, r18
    37f2:	8e 01       	movw	r16, r28
    37f4:	0f 5f       	subi	r16, 0xFF	; 255
    37f6:	1f 4f       	sbci	r17, 0xFF	; 255
    37f8:	68 01       	movw	r12, r16
    37fa:	80 e2       	ldi	r24, 0x20	; 32
    37fc:	d8 01       	movw	r26, r16
    37fe:	1d 92       	st	X+, r1
    3800:	8a 95       	dec	r24
    3802:	e9 f7       	brne	.-6      	; 0x37fe <conv_brk+0x20>
    3804:	d5 01       	movw	r26, r10
    3806:	13 96       	adiw	r26, 0x03	; 3
    3808:	8c 90       	ld	r8, X
    380a:	80 e0       	ldi	r24, 0x00	; 0
    380c:	90 e0       	ldi	r25, 0x00	; 0
    380e:	61 2c       	mov	r6, r1
    3810:	71 2c       	mov	r7, r1
    3812:	30 e0       	ldi	r19, 0x00	; 0
    3814:	61 e0       	ldi	r22, 0x01	; 1
    3816:	70 e0       	ldi	r23, 0x00	; 0
    3818:	83 fc       	sbrc	r8, 3
    381a:	25 91       	lpm	r18, Z+
    381c:	83 fe       	sbrs	r8, 3
    381e:	21 91       	ld	r18, Z+
    3820:	8f 01       	movw	r16, r30
    3822:	52 2e       	mov	r5, r18
    3824:	21 11       	cpse	r18, r1
    3826:	03 c0       	rjmp	.+6      	; 0x382e <conv_brk+0x50>
    3828:	80 e0       	ldi	r24, 0x00	; 0
    382a:	90 e0       	ldi	r25, 0x00	; 0
    382c:	92 c0       	rjmp	.+292    	; 0x3952 <conv_brk+0x174>
    382e:	2e 35       	cpi	r18, 0x5E	; 94
    3830:	11 f4       	brne	.+4      	; 0x3836 <conv_brk+0x58>
    3832:	00 97       	sbiw	r24, 0x00	; 0
    3834:	51 f1       	breq	.+84     	; 0x388a <conv_brk+0xac>
    3836:	43 2f       	mov	r20, r19
    3838:	50 e0       	ldi	r21, 0x00	; 0
    383a:	48 17       	cp	r20, r24
    383c:	59 07       	cpc	r21, r25
    383e:	3c f4       	brge	.+14     	; 0x384e <conv_brk+0x70>
    3840:	2d 35       	cpi	r18, 0x5D	; 93
    3842:	59 f1       	breq	.+86     	; 0x389a <conv_brk+0xbc>
    3844:	2d 32       	cpi	r18, 0x2D	; 45
    3846:	19 f4       	brne	.+6      	; 0x384e <conv_brk+0x70>
    3848:	77 20       	and	r7, r7
    384a:	09 f1       	breq	.+66     	; 0x388e <conv_brk+0xb0>
    384c:	03 c0       	rjmp	.+6      	; 0x3854 <conv_brk+0x76>
    384e:	77 20       	and	r7, r7
    3850:	09 f4       	brne	.+2      	; 0x3854 <conv_brk+0x76>
    3852:	6a c0       	rjmp	.+212    	; 0x3928 <conv_brk+0x14a>
    3854:	45 2d       	mov	r20, r5
    3856:	46 95       	lsr	r20
    3858:	46 95       	lsr	r20
    385a:	46 95       	lsr	r20
    385c:	d6 01       	movw	r26, r12
    385e:	a4 0f       	add	r26, r20
    3860:	b1 1d       	adc	r27, r1
    3862:	45 2d       	mov	r20, r5
    3864:	47 70       	andi	r20, 0x07	; 7
    3866:	8b 01       	movw	r16, r22
    3868:	02 c0       	rjmp	.+4      	; 0x386e <conv_brk+0x90>
    386a:	00 0f       	add	r16, r16
    386c:	11 1f       	adc	r17, r17
    386e:	4a 95       	dec	r20
    3870:	e2 f7       	brpl	.-8      	; 0x386a <conv_brk+0x8c>
    3872:	a8 01       	movw	r20, r16
    3874:	5c 91       	ld	r21, X
    3876:	45 2b       	or	r20, r21
    3878:	4c 93       	st	X, r20
    387a:	65 14       	cp	r6, r5
    387c:	59 f0       	breq	.+22     	; 0x3894 <conv_brk+0xb6>
    387e:	56 14       	cp	r5, r6
    3880:	10 f4       	brcc	.+4      	; 0x3886 <conv_brk+0xa8>
    3882:	53 94       	inc	r5
    3884:	e7 cf       	rjmp	.-50     	; 0x3854 <conv_brk+0x76>
    3886:	5a 94       	dec	r5
    3888:	e5 cf       	rjmp	.-54     	; 0x3854 <conv_brk+0x76>
    388a:	31 e0       	ldi	r19, 0x01	; 1
    388c:	04 c0       	rjmp	.+8      	; 0x3896 <conv_brk+0xb8>
    388e:	77 24       	eor	r7, r7
    3890:	73 94       	inc	r7
    3892:	01 c0       	rjmp	.+2      	; 0x3896 <conv_brk+0xb8>
    3894:	71 2c       	mov	r7, r1
    3896:	01 96       	adiw	r24, 0x01	; 1
    3898:	bf cf       	rjmp	.-130    	; 0x3818 <conv_brk+0x3a>
    389a:	77 20       	and	r7, r7
    389c:	19 f0       	breq	.+6      	; 0x38a4 <conv_brk+0xc6>
    389e:	8e 81       	ldd	r24, Y+6	; 0x06
    38a0:	80 62       	ori	r24, 0x20	; 32
    38a2:	8e 83       	std	Y+6, r24	; 0x06
    38a4:	31 11       	cpse	r19, r1
    38a6:	03 c0       	rjmp	.+6      	; 0x38ae <conv_brk+0xd0>
    38a8:	88 24       	eor	r8, r8
    38aa:	83 94       	inc	r8
    38ac:	17 c0       	rjmp	.+46     	; 0x38dc <conv_brk+0xfe>
    38ae:	f6 01       	movw	r30, r12
    38b0:	9e 01       	movw	r18, r28
    38b2:	2f 5d       	subi	r18, 0xDF	; 223
    38b4:	3f 4f       	sbci	r19, 0xFF	; 255
    38b6:	80 81       	ld	r24, Z
    38b8:	80 95       	com	r24
    38ba:	81 93       	st	Z+, r24
    38bc:	2e 17       	cp	r18, r30
    38be:	3f 07       	cpc	r19, r31
    38c0:	d1 f7       	brne	.-12     	; 0x38b6 <conv_brk+0xd8>
    38c2:	f2 cf       	rjmp	.-28     	; 0x38a8 <conv_brk+0xca>
    38c4:	e1 14       	cp	r14, r1
    38c6:	f1 04       	cpc	r15, r1
    38c8:	29 f0       	breq	.+10     	; 0x38d4 <conv_brk+0xf6>
    38ca:	d7 01       	movw	r26, r14
    38cc:	8c 93       	st	X, r24
    38ce:	f7 01       	movw	r30, r14
    38d0:	31 96       	adiw	r30, 0x01	; 1
    38d2:	7f 01       	movw	r14, r30
    38d4:	9a 94       	dec	r9
    38d6:	81 2c       	mov	r8, r1
    38d8:	99 20       	and	r9, r9
    38da:	f9 f0       	breq	.+62     	; 0x391a <conv_brk+0x13c>
    38dc:	c5 01       	movw	r24, r10
    38de:	0e 94 e2 1d 	call	0x3bc4	; 0x3bc4 <fgetc>
    38e2:	97 fd       	sbrc	r25, 7
    38e4:	18 c0       	rjmp	.+48     	; 0x3916 <conv_brk+0x138>
    38e6:	fc 01       	movw	r30, r24
    38e8:	ff 27       	eor	r31, r31
    38ea:	23 e0       	ldi	r18, 0x03	; 3
    38ec:	f5 95       	asr	r31
    38ee:	e7 95       	ror	r30
    38f0:	2a 95       	dec	r18
    38f2:	e1 f7       	brne	.-8      	; 0x38ec <conv_brk+0x10e>
    38f4:	ec 0d       	add	r30, r12
    38f6:	fd 1d       	adc	r31, r13
    38f8:	20 81       	ld	r18, Z
    38fa:	30 e0       	ldi	r19, 0x00	; 0
    38fc:	ac 01       	movw	r20, r24
    38fe:	47 70       	andi	r20, 0x07	; 7
    3900:	55 27       	eor	r21, r21
    3902:	02 c0       	rjmp	.+4      	; 0x3908 <conv_brk+0x12a>
    3904:	35 95       	asr	r19
    3906:	27 95       	ror	r18
    3908:	4a 95       	dec	r20
    390a:	e2 f7       	brpl	.-8      	; 0x3904 <conv_brk+0x126>
    390c:	20 fd       	sbrc	r18, 0
    390e:	da cf       	rjmp	.-76     	; 0x38c4 <conv_brk+0xe6>
    3910:	b5 01       	movw	r22, r10
    3912:	0e 94 5c 1e 	call	0x3cb8	; 0x3cb8 <ungetc>
    3916:	81 10       	cpse	r8, r1
    3918:	87 cf       	rjmp	.-242    	; 0x3828 <conv_brk+0x4a>
    391a:	e1 14       	cp	r14, r1
    391c:	f1 04       	cpc	r15, r1
    391e:	11 f0       	breq	.+4      	; 0x3924 <conv_brk+0x146>
    3920:	d7 01       	movw	r26, r14
    3922:	1c 92       	st	X, r1
    3924:	c8 01       	movw	r24, r16
    3926:	15 c0       	rjmp	.+42     	; 0x3952 <conv_brk+0x174>
    3928:	42 2f       	mov	r20, r18
    392a:	46 95       	lsr	r20
    392c:	46 95       	lsr	r20
    392e:	46 95       	lsr	r20
    3930:	d6 01       	movw	r26, r12
    3932:	a4 0f       	add	r26, r20
    3934:	b1 1d       	adc	r27, r1
    3936:	42 2f       	mov	r20, r18
    3938:	47 70       	andi	r20, 0x07	; 7
    393a:	8b 01       	movw	r16, r22
    393c:	02 c0       	rjmp	.+4      	; 0x3942 <conv_brk+0x164>
    393e:	00 0f       	add	r16, r16
    3940:	11 1f       	adc	r17, r17
    3942:	4a 95       	dec	r20
    3944:	e2 f7       	brpl	.-8      	; 0x393e <conv_brk+0x160>
    3946:	a8 01       	movw	r20, r16
    3948:	5c 91       	ld	r21, X
    394a:	45 2b       	or	r20, r21
    394c:	4c 93       	st	X, r20
    394e:	62 2e       	mov	r6, r18
    3950:	a2 cf       	rjmp	.-188    	; 0x3896 <conv_brk+0xb8>
    3952:	a0 96       	adiw	r28, 0x20	; 32
    3954:	ef e0       	ldi	r30, 0x0F	; 15
    3956:	0c 94 2b 1f 	jmp	0x3e56	; 0x3e56 <__epilogue_restores__+0x6>

0000395a <vfscanf>:
    395a:	a0 e0       	ldi	r26, 0x00	; 0
    395c:	b0 e0       	ldi	r27, 0x00	; 0
    395e:	e3 eb       	ldi	r30, 0xB3	; 179
    3960:	fc e1       	ldi	r31, 0x1C	; 28
    3962:	0c 94 0f 1f 	jmp	0x3e1e	; 0x3e1e <__prologue_saves__+0x6>
    3966:	6c 01       	movw	r12, r24
    3968:	eb 01       	movw	r28, r22
    396a:	5a 01       	movw	r10, r20
    396c:	fc 01       	movw	r30, r24
    396e:	17 82       	std	Z+7, r1	; 0x07
    3970:	16 82       	std	Z+6, r1	; 0x06
    3972:	51 2c       	mov	r5, r1
    3974:	f6 01       	movw	r30, r12
    3976:	e3 80       	ldd	r14, Z+3	; 0x03
    3978:	fe 01       	movw	r30, r28
    397a:	e3 fc       	sbrc	r14, 3
    397c:	85 91       	lpm	r24, Z+
    397e:	e3 fe       	sbrs	r14, 3
    3980:	81 91       	ld	r24, Z+
    3982:	18 2f       	mov	r17, r24
    3984:	ef 01       	movw	r28, r30
    3986:	88 23       	and	r24, r24
    3988:	09 f4       	brne	.+2      	; 0x398c <vfscanf+0x32>
    398a:	ee c0       	rjmp	.+476    	; 0x3b68 <vfscanf+0x20e>
    398c:	90 e0       	ldi	r25, 0x00	; 0
    398e:	0e 94 9d 18 	call	0x313a	; 0x313a <isspace>
    3992:	89 2b       	or	r24, r25
    3994:	21 f0       	breq	.+8      	; 0x399e <vfscanf+0x44>
    3996:	c6 01       	movw	r24, r12
    3998:	0e 94 44 1b 	call	0x3688	; 0x3688 <skip_spaces>
    399c:	eb cf       	rjmp	.-42     	; 0x3974 <vfscanf+0x1a>
    399e:	15 32       	cpi	r17, 0x25	; 37
    39a0:	41 f4       	brne	.+16     	; 0x39b2 <vfscanf+0x58>
    39a2:	fe 01       	movw	r30, r28
    39a4:	e3 fc       	sbrc	r14, 3
    39a6:	15 91       	lpm	r17, Z+
    39a8:	e3 fe       	sbrs	r14, 3
    39aa:	11 91       	ld	r17, Z+
    39ac:	ef 01       	movw	r28, r30
    39ae:	15 32       	cpi	r17, 0x25	; 37
    39b0:	81 f4       	brne	.+32     	; 0x39d2 <vfscanf+0x78>
    39b2:	c6 01       	movw	r24, r12
    39b4:	0e 94 e2 1d 	call	0x3bc4	; 0x3bc4 <fgetc>
    39b8:	97 fd       	sbrc	r25, 7
    39ba:	d4 c0       	rjmp	.+424    	; 0x3b64 <vfscanf+0x20a>
    39bc:	41 2f       	mov	r20, r17
    39be:	50 e0       	ldi	r21, 0x00	; 0
    39c0:	9c 01       	movw	r18, r24
    39c2:	33 27       	eor	r19, r19
    39c4:	24 17       	cp	r18, r20
    39c6:	35 07       	cpc	r19, r21
    39c8:	a9 f2       	breq	.-86     	; 0x3974 <vfscanf+0x1a>
    39ca:	b6 01       	movw	r22, r12
    39cc:	0e 94 5c 1e 	call	0x3cb8	; 0x3cb8 <ungetc>
    39d0:	cb c0       	rjmp	.+406    	; 0x3b68 <vfscanf+0x20e>
    39d2:	1a 32       	cpi	r17, 0x2A	; 42
    39d4:	39 f4       	brne	.+14     	; 0x39e4 <vfscanf+0x8a>
    39d6:	e3 fc       	sbrc	r14, 3
    39d8:	15 91       	lpm	r17, Z+
    39da:	e3 fe       	sbrs	r14, 3
    39dc:	11 91       	ld	r17, Z+
    39de:	ef 01       	movw	r28, r30
    39e0:	01 e0       	ldi	r16, 0x01	; 1
    39e2:	01 c0       	rjmp	.+2      	; 0x39e6 <vfscanf+0x8c>
    39e4:	00 e0       	ldi	r16, 0x00	; 0
    39e6:	f1 2c       	mov	r15, r1
    39e8:	20 ed       	ldi	r18, 0xD0	; 208
    39ea:	21 0f       	add	r18, r17
    39ec:	2a 30       	cpi	r18, 0x0A	; 10
    39ee:	80 f4       	brcc	.+32     	; 0x3a10 <vfscanf+0xb6>
    39f0:	02 60       	ori	r16, 0x02	; 2
    39f2:	6f 2d       	mov	r22, r15
    39f4:	70 e0       	ldi	r23, 0x00	; 0
    39f6:	80 e0       	ldi	r24, 0x00	; 0
    39f8:	90 e0       	ldi	r25, 0x00	; 0
    39fa:	40 e2       	ldi	r20, 0x20	; 32
    39fc:	0e 94 1d 1b 	call	0x363a	; 0x363a <mulacc>
    3a00:	f6 2e       	mov	r15, r22
    3a02:	fe 01       	movw	r30, r28
    3a04:	e3 fc       	sbrc	r14, 3
    3a06:	15 91       	lpm	r17, Z+
    3a08:	e3 fe       	sbrs	r14, 3
    3a0a:	11 91       	ld	r17, Z+
    3a0c:	ef 01       	movw	r28, r30
    3a0e:	ec cf       	rjmp	.-40     	; 0x39e8 <vfscanf+0x8e>
    3a10:	01 ff       	sbrs	r16, 1
    3a12:	03 c0       	rjmp	.+6      	; 0x3a1a <vfscanf+0xc0>
    3a14:	f1 10       	cpse	r15, r1
    3a16:	03 c0       	rjmp	.+6      	; 0x3a1e <vfscanf+0xc4>
    3a18:	a7 c0       	rjmp	.+334    	; 0x3b68 <vfscanf+0x20e>
    3a1a:	ff 24       	eor	r15, r15
    3a1c:	fa 94       	dec	r15
    3a1e:	18 36       	cpi	r17, 0x68	; 104
    3a20:	19 f0       	breq	.+6      	; 0x3a28 <vfscanf+0xce>
    3a22:	1c 36       	cpi	r17, 0x6C	; 108
    3a24:	51 f0       	breq	.+20     	; 0x3a3a <vfscanf+0xe0>
    3a26:	10 c0       	rjmp	.+32     	; 0x3a48 <vfscanf+0xee>
    3a28:	fe 01       	movw	r30, r28
    3a2a:	e3 fc       	sbrc	r14, 3
    3a2c:	15 91       	lpm	r17, Z+
    3a2e:	e3 fe       	sbrs	r14, 3
    3a30:	11 91       	ld	r17, Z+
    3a32:	ef 01       	movw	r28, r30
    3a34:	18 36       	cpi	r17, 0x68	; 104
    3a36:	41 f4       	brne	.+16     	; 0x3a48 <vfscanf+0xee>
    3a38:	08 60       	ori	r16, 0x08	; 8
    3a3a:	04 60       	ori	r16, 0x04	; 4
    3a3c:	fe 01       	movw	r30, r28
    3a3e:	e3 fc       	sbrc	r14, 3
    3a40:	15 91       	lpm	r17, Z+
    3a42:	e3 fe       	sbrs	r14, 3
    3a44:	11 91       	ld	r17, Z+
    3a46:	ef 01       	movw	r28, r30
    3a48:	11 23       	and	r17, r17
    3a4a:	09 f4       	brne	.+2      	; 0x3a4e <vfscanf+0xf4>
    3a4c:	8d c0       	rjmp	.+282    	; 0x3b68 <vfscanf+0x20e>
    3a4e:	61 2f       	mov	r22, r17
    3a50:	70 e0       	ldi	r23, 0x00	; 0
    3a52:	81 ec       	ldi	r24, 0xC1	; 193
    3a54:	91 e0       	ldi	r25, 0x01	; 1
    3a56:	0e 94 c1 1d 	call	0x3b82	; 0x3b82 <strchr_P>
    3a5a:	89 2b       	or	r24, r25
    3a5c:	09 f4       	brne	.+2      	; 0x3a60 <vfscanf+0x106>
    3a5e:	84 c0       	rjmp	.+264    	; 0x3b68 <vfscanf+0x20e>
    3a60:	00 fd       	sbrc	r16, 0
    3a62:	07 c0       	rjmp	.+14     	; 0x3a72 <vfscanf+0x118>
    3a64:	f5 01       	movw	r30, r10
    3a66:	80 80       	ld	r8, Z
    3a68:	91 80       	ldd	r9, Z+1	; 0x01
    3a6a:	c5 01       	movw	r24, r10
    3a6c:	02 96       	adiw	r24, 0x02	; 2
    3a6e:	5c 01       	movw	r10, r24
    3a70:	02 c0       	rjmp	.+4      	; 0x3a76 <vfscanf+0x11c>
    3a72:	81 2c       	mov	r8, r1
    3a74:	91 2c       	mov	r9, r1
    3a76:	1e 36       	cpi	r17, 0x6E	; 110
    3a78:	51 f4       	brne	.+20     	; 0x3a8e <vfscanf+0x134>
    3a7a:	f6 01       	movw	r30, r12
    3a7c:	46 81       	ldd	r20, Z+6	; 0x06
    3a7e:	57 81       	ldd	r21, Z+7	; 0x07
    3a80:	60 e0       	ldi	r22, 0x00	; 0
    3a82:	70 e0       	ldi	r23, 0x00	; 0
    3a84:	20 2f       	mov	r18, r16
    3a86:	c4 01       	movw	r24, r8
    3a88:	0e 94 11 1b 	call	0x3622	; 0x3622 <putval>
    3a8c:	73 cf       	rjmp	.-282    	; 0x3974 <vfscanf+0x1a>
    3a8e:	13 36       	cpi	r17, 0x63	; 99
    3a90:	a9 f4       	brne	.+42     	; 0x3abc <vfscanf+0x162>
    3a92:	01 fd       	sbrc	r16, 1
    3a94:	02 c0       	rjmp	.+4      	; 0x3a9a <vfscanf+0x140>
    3a96:	ff 24       	eor	r15, r15
    3a98:	f3 94       	inc	r15
    3a9a:	c6 01       	movw	r24, r12
    3a9c:	0e 94 e2 1d 	call	0x3bc4	; 0x3bc4 <fgetc>
    3aa0:	97 fd       	sbrc	r25, 7
    3aa2:	60 c0       	rjmp	.+192    	; 0x3b64 <vfscanf+0x20a>
    3aa4:	81 14       	cp	r8, r1
    3aa6:	91 04       	cpc	r9, r1
    3aa8:	29 f0       	breq	.+10     	; 0x3ab4 <vfscanf+0x15a>
    3aaa:	f4 01       	movw	r30, r8
    3aac:	80 83       	st	Z, r24
    3aae:	c4 01       	movw	r24, r8
    3ab0:	01 96       	adiw	r24, 0x01	; 1
    3ab2:	4c 01       	movw	r8, r24
    3ab4:	fa 94       	dec	r15
    3ab6:	f1 10       	cpse	r15, r1
    3ab8:	f0 cf       	rjmp	.-32     	; 0x3a9a <vfscanf+0x140>
    3aba:	50 c0       	rjmp	.+160    	; 0x3b5c <vfscanf+0x202>
    3abc:	1b 35       	cpi	r17, 0x5B	; 91
    3abe:	59 f4       	brne	.+22     	; 0x3ad6 <vfscanf+0x17c>
    3ac0:	9e 01       	movw	r18, r28
    3ac2:	a4 01       	movw	r20, r8
    3ac4:	6f 2d       	mov	r22, r15
    3ac6:	c6 01       	movw	r24, r12
    3ac8:	0e 94 ef 1b 	call	0x37de	; 0x37de <conv_brk>
    3acc:	ec 01       	movw	r28, r24
    3ace:	89 2b       	or	r24, r25
    3ad0:	09 f0       	breq	.+2      	; 0x3ad4 <vfscanf+0x17a>
    3ad2:	44 c0       	rjmp	.+136    	; 0x3b5c <vfscanf+0x202>
    3ad4:	3e c0       	rjmp	.+124    	; 0x3b52 <vfscanf+0x1f8>
    3ad6:	c6 01       	movw	r24, r12
    3ad8:	0e 94 44 1b 	call	0x3688	; 0x3688 <skip_spaces>
    3adc:	97 fd       	sbrc	r25, 7
    3ade:	42 c0       	rjmp	.+132    	; 0x3b64 <vfscanf+0x20a>
    3ae0:	1f 36       	cpi	r17, 0x6F	; 111
    3ae2:	61 f1       	breq	.+88     	; 0x3b3c <vfscanf+0x1e2>
    3ae4:	28 f4       	brcc	.+10     	; 0x3af0 <vfscanf+0x196>
    3ae6:	14 36       	cpi	r17, 0x64	; 100
    3ae8:	39 f1       	breq	.+78     	; 0x3b38 <vfscanf+0x1de>
    3aea:	19 36       	cpi	r17, 0x69	; 105
    3aec:	51 f1       	breq	.+84     	; 0x3b42 <vfscanf+0x1e8>
    3aee:	28 c0       	rjmp	.+80     	; 0x3b40 <vfscanf+0x1e6>
    3af0:	13 37       	cpi	r17, 0x73	; 115
    3af2:	71 f0       	breq	.+28     	; 0x3b10 <vfscanf+0x1b6>
    3af4:	15 37       	cpi	r17, 0x75	; 117
    3af6:	01 f1       	breq	.+64     	; 0x3b38 <vfscanf+0x1de>
    3af8:	23 c0       	rjmp	.+70     	; 0x3b40 <vfscanf+0x1e6>
    3afa:	81 14       	cp	r8, r1
    3afc:	91 04       	cpc	r9, r1
    3afe:	29 f0       	breq	.+10     	; 0x3b0a <vfscanf+0x1b0>
    3b00:	f4 01       	movw	r30, r8
    3b02:	60 82       	st	Z, r6
    3b04:	c4 01       	movw	r24, r8
    3b06:	01 96       	adiw	r24, 0x01	; 1
    3b08:	4c 01       	movw	r8, r24
    3b0a:	fa 94       	dec	r15
    3b0c:	ff 20       	and	r15, r15
    3b0e:	71 f0       	breq	.+28     	; 0x3b2c <vfscanf+0x1d2>
    3b10:	c6 01       	movw	r24, r12
    3b12:	0e 94 e2 1d 	call	0x3bc4	; 0x3bc4 <fgetc>
    3b16:	3c 01       	movw	r6, r24
    3b18:	97 fd       	sbrc	r25, 7
    3b1a:	08 c0       	rjmp	.+16     	; 0x3b2c <vfscanf+0x1d2>
    3b1c:	0e 94 9d 18 	call	0x313a	; 0x313a <isspace>
    3b20:	89 2b       	or	r24, r25
    3b22:	59 f3       	breq	.-42     	; 0x3afa <vfscanf+0x1a0>
    3b24:	b6 01       	movw	r22, r12
    3b26:	c3 01       	movw	r24, r6
    3b28:	0e 94 5c 1e 	call	0x3cb8	; 0x3cb8 <ungetc>
    3b2c:	81 14       	cp	r8, r1
    3b2e:	91 04       	cpc	r9, r1
    3b30:	a9 f0       	breq	.+42     	; 0x3b5c <vfscanf+0x202>
    3b32:	f4 01       	movw	r30, r8
    3b34:	10 82       	st	Z, r1
    3b36:	12 c0       	rjmp	.+36     	; 0x3b5c <vfscanf+0x202>
    3b38:	00 62       	ori	r16, 0x20	; 32
    3b3a:	03 c0       	rjmp	.+6      	; 0x3b42 <vfscanf+0x1e8>
    3b3c:	00 61       	ori	r16, 0x10	; 16
    3b3e:	01 c0       	rjmp	.+2      	; 0x3b42 <vfscanf+0x1e8>
    3b40:	00 64       	ori	r16, 0x40	; 64
    3b42:	20 2f       	mov	r18, r16
    3b44:	a4 01       	movw	r20, r8
    3b46:	6f 2d       	mov	r22, r15
    3b48:	c6 01       	movw	r24, r12
    3b4a:	0e 94 5d 1b 	call	0x36ba	; 0x36ba <conv_int>
    3b4e:	81 11       	cpse	r24, r1
    3b50:	05 c0       	rjmp	.+10     	; 0x3b5c <vfscanf+0x202>
    3b52:	f6 01       	movw	r30, r12
    3b54:	83 81       	ldd	r24, Z+3	; 0x03
    3b56:	80 73       	andi	r24, 0x30	; 48
    3b58:	29 f4       	brne	.+10     	; 0x3b64 <vfscanf+0x20a>
    3b5a:	06 c0       	rjmp	.+12     	; 0x3b68 <vfscanf+0x20e>
    3b5c:	00 fd       	sbrc	r16, 0
    3b5e:	0a cf       	rjmp	.-492    	; 0x3974 <vfscanf+0x1a>
    3b60:	53 94       	inc	r5
    3b62:	08 cf       	rjmp	.-496    	; 0x3974 <vfscanf+0x1a>
    3b64:	55 20       	and	r5, r5
    3b66:	19 f0       	breq	.+6      	; 0x3b6e <vfscanf+0x214>
    3b68:	85 2d       	mov	r24, r5
    3b6a:	90 e0       	ldi	r25, 0x00	; 0
    3b6c:	02 c0       	rjmp	.+4      	; 0x3b72 <vfscanf+0x218>
    3b6e:	8f ef       	ldi	r24, 0xFF	; 255
    3b70:	9f ef       	ldi	r25, 0xFF	; 255
    3b72:	cd b7       	in	r28, 0x3d	; 61
    3b74:	de b7       	in	r29, 0x3e	; 62
    3b76:	ef e0       	ldi	r30, 0x0F	; 15
    3b78:	0c 94 2b 1f 	jmp	0x3e56	; 0x3e56 <__epilogue_restores__+0x6>

00003b7c <__ctype_isfalse>:
    3b7c:	99 27       	eor	r25, r25
    3b7e:	88 27       	eor	r24, r24

00003b80 <__ctype_istrue>:
    3b80:	08 95       	ret

00003b82 <strchr_P>:
    3b82:	fc 01       	movw	r30, r24
    3b84:	05 90       	lpm	r0, Z+
    3b86:	06 16       	cp	r0, r22
    3b88:	21 f0       	breq	.+8      	; 0x3b92 <strchr_P+0x10>
    3b8a:	00 20       	and	r0, r0
    3b8c:	d9 f7       	brne	.-10     	; 0x3b84 <strchr_P+0x2>
    3b8e:	c0 01       	movw	r24, r0
    3b90:	08 95       	ret
    3b92:	31 97       	sbiw	r30, 0x01	; 1
    3b94:	cf 01       	movw	r24, r30
    3b96:	08 95       	ret

00003b98 <strnlen_P>:
    3b98:	fc 01       	movw	r30, r24
    3b9a:	05 90       	lpm	r0, Z+
    3b9c:	61 50       	subi	r22, 0x01	; 1
    3b9e:	70 40       	sbci	r23, 0x00	; 0
    3ba0:	01 10       	cpse	r0, r1
    3ba2:	d8 f7       	brcc	.-10     	; 0x3b9a <strnlen_P+0x2>
    3ba4:	80 95       	com	r24
    3ba6:	90 95       	com	r25
    3ba8:	8e 0f       	add	r24, r30
    3baa:	9f 1f       	adc	r25, r31
    3bac:	08 95       	ret

00003bae <strnlen>:
    3bae:	fc 01       	movw	r30, r24
    3bb0:	61 50       	subi	r22, 0x01	; 1
    3bb2:	70 40       	sbci	r23, 0x00	; 0
    3bb4:	01 90       	ld	r0, Z+
    3bb6:	01 10       	cpse	r0, r1
    3bb8:	d8 f7       	brcc	.-10     	; 0x3bb0 <strnlen+0x2>
    3bba:	80 95       	com	r24
    3bbc:	90 95       	com	r25
    3bbe:	8e 0f       	add	r24, r30
    3bc0:	9f 1f       	adc	r25, r31
    3bc2:	08 95       	ret

00003bc4 <fgetc>:
    3bc4:	cf 93       	push	r28
    3bc6:	df 93       	push	r29
    3bc8:	ec 01       	movw	r28, r24
    3bca:	2b 81       	ldd	r18, Y+3	; 0x03
    3bcc:	20 ff       	sbrs	r18, 0
    3bce:	33 c0       	rjmp	.+102    	; 0x3c36 <fgetc+0x72>
    3bd0:	26 ff       	sbrs	r18, 6
    3bd2:	0a c0       	rjmp	.+20     	; 0x3be8 <fgetc+0x24>
    3bd4:	2f 7b       	andi	r18, 0xBF	; 191
    3bd6:	2b 83       	std	Y+3, r18	; 0x03
    3bd8:	8e 81       	ldd	r24, Y+6	; 0x06
    3bda:	9f 81       	ldd	r25, Y+7	; 0x07
    3bdc:	01 96       	adiw	r24, 0x01	; 1
    3bde:	9f 83       	std	Y+7, r25	; 0x07
    3be0:	8e 83       	std	Y+6, r24	; 0x06
    3be2:	8a 81       	ldd	r24, Y+2	; 0x02
    3be4:	90 e0       	ldi	r25, 0x00	; 0
    3be6:	29 c0       	rjmp	.+82     	; 0x3c3a <fgetc+0x76>
    3be8:	22 ff       	sbrs	r18, 2
    3bea:	0f c0       	rjmp	.+30     	; 0x3c0a <fgetc+0x46>
    3bec:	e8 81       	ld	r30, Y
    3bee:	f9 81       	ldd	r31, Y+1	; 0x01
    3bf0:	80 81       	ld	r24, Z
    3bf2:	08 2e       	mov	r0, r24
    3bf4:	00 0c       	add	r0, r0
    3bf6:	99 0b       	sbc	r25, r25
    3bf8:	00 97       	sbiw	r24, 0x00	; 0
    3bfa:	19 f4       	brne	.+6      	; 0x3c02 <fgetc+0x3e>
    3bfc:	20 62       	ori	r18, 0x20	; 32
    3bfe:	2b 83       	std	Y+3, r18	; 0x03
    3c00:	1a c0       	rjmp	.+52     	; 0x3c36 <fgetc+0x72>
    3c02:	31 96       	adiw	r30, 0x01	; 1
    3c04:	f9 83       	std	Y+1, r31	; 0x01
    3c06:	e8 83       	st	Y, r30
    3c08:	0e c0       	rjmp	.+28     	; 0x3c26 <fgetc+0x62>
    3c0a:	ea 85       	ldd	r30, Y+10	; 0x0a
    3c0c:	fb 85       	ldd	r31, Y+11	; 0x0b
    3c0e:	09 95       	icall
    3c10:	97 ff       	sbrs	r25, 7
    3c12:	09 c0       	rjmp	.+18     	; 0x3c26 <fgetc+0x62>
    3c14:	2b 81       	ldd	r18, Y+3	; 0x03
    3c16:	01 96       	adiw	r24, 0x01	; 1
    3c18:	11 f0       	breq	.+4      	; 0x3c1e <fgetc+0x5a>
    3c1a:	80 e2       	ldi	r24, 0x20	; 32
    3c1c:	01 c0       	rjmp	.+2      	; 0x3c20 <fgetc+0x5c>
    3c1e:	80 e1       	ldi	r24, 0x10	; 16
    3c20:	82 2b       	or	r24, r18
    3c22:	8b 83       	std	Y+3, r24	; 0x03
    3c24:	08 c0       	rjmp	.+16     	; 0x3c36 <fgetc+0x72>
    3c26:	2e 81       	ldd	r18, Y+6	; 0x06
    3c28:	3f 81       	ldd	r19, Y+7	; 0x07
    3c2a:	2f 5f       	subi	r18, 0xFF	; 255
    3c2c:	3f 4f       	sbci	r19, 0xFF	; 255
    3c2e:	3f 83       	std	Y+7, r19	; 0x07
    3c30:	2e 83       	std	Y+6, r18	; 0x06
    3c32:	99 27       	eor	r25, r25
    3c34:	02 c0       	rjmp	.+4      	; 0x3c3a <fgetc+0x76>
    3c36:	8f ef       	ldi	r24, 0xFF	; 255
    3c38:	9f ef       	ldi	r25, 0xFF	; 255
    3c3a:	df 91       	pop	r29
    3c3c:	cf 91       	pop	r28
    3c3e:	08 95       	ret

00003c40 <fputc>:
    3c40:	0f 93       	push	r16
    3c42:	1f 93       	push	r17
    3c44:	cf 93       	push	r28
    3c46:	df 93       	push	r29
    3c48:	fb 01       	movw	r30, r22
    3c4a:	23 81       	ldd	r18, Z+3	; 0x03
    3c4c:	21 fd       	sbrc	r18, 1
    3c4e:	03 c0       	rjmp	.+6      	; 0x3c56 <fputc+0x16>
    3c50:	8f ef       	ldi	r24, 0xFF	; 255
    3c52:	9f ef       	ldi	r25, 0xFF	; 255
    3c54:	2c c0       	rjmp	.+88     	; 0x3cae <fputc+0x6e>
    3c56:	22 ff       	sbrs	r18, 2
    3c58:	16 c0       	rjmp	.+44     	; 0x3c86 <fputc+0x46>
    3c5a:	46 81       	ldd	r20, Z+6	; 0x06
    3c5c:	57 81       	ldd	r21, Z+7	; 0x07
    3c5e:	24 81       	ldd	r18, Z+4	; 0x04
    3c60:	35 81       	ldd	r19, Z+5	; 0x05
    3c62:	42 17       	cp	r20, r18
    3c64:	53 07       	cpc	r21, r19
    3c66:	44 f4       	brge	.+16     	; 0x3c78 <fputc+0x38>
    3c68:	a0 81       	ld	r26, Z
    3c6a:	b1 81       	ldd	r27, Z+1	; 0x01
    3c6c:	9d 01       	movw	r18, r26
    3c6e:	2f 5f       	subi	r18, 0xFF	; 255
    3c70:	3f 4f       	sbci	r19, 0xFF	; 255
    3c72:	31 83       	std	Z+1, r19	; 0x01
    3c74:	20 83       	st	Z, r18
    3c76:	8c 93       	st	X, r24
    3c78:	26 81       	ldd	r18, Z+6	; 0x06
    3c7a:	37 81       	ldd	r19, Z+7	; 0x07
    3c7c:	2f 5f       	subi	r18, 0xFF	; 255
    3c7e:	3f 4f       	sbci	r19, 0xFF	; 255
    3c80:	37 83       	std	Z+7, r19	; 0x07
    3c82:	26 83       	std	Z+6, r18	; 0x06
    3c84:	14 c0       	rjmp	.+40     	; 0x3cae <fputc+0x6e>
    3c86:	8b 01       	movw	r16, r22
    3c88:	ec 01       	movw	r28, r24
    3c8a:	fb 01       	movw	r30, r22
    3c8c:	00 84       	ldd	r0, Z+8	; 0x08
    3c8e:	f1 85       	ldd	r31, Z+9	; 0x09
    3c90:	e0 2d       	mov	r30, r0
    3c92:	09 95       	icall
    3c94:	89 2b       	or	r24, r25
    3c96:	e1 f6       	brne	.-72     	; 0x3c50 <fputc+0x10>
    3c98:	d8 01       	movw	r26, r16
    3c9a:	16 96       	adiw	r26, 0x06	; 6
    3c9c:	8d 91       	ld	r24, X+
    3c9e:	9c 91       	ld	r25, X
    3ca0:	17 97       	sbiw	r26, 0x07	; 7
    3ca2:	01 96       	adiw	r24, 0x01	; 1
    3ca4:	17 96       	adiw	r26, 0x07	; 7
    3ca6:	9c 93       	st	X, r25
    3ca8:	8e 93       	st	-X, r24
    3caa:	16 97       	sbiw	r26, 0x06	; 6
    3cac:	ce 01       	movw	r24, r28
    3cae:	df 91       	pop	r29
    3cb0:	cf 91       	pop	r28
    3cb2:	1f 91       	pop	r17
    3cb4:	0f 91       	pop	r16
    3cb6:	08 95       	ret

00003cb8 <ungetc>:
    3cb8:	fb 01       	movw	r30, r22
    3cba:	23 81       	ldd	r18, Z+3	; 0x03
    3cbc:	20 ff       	sbrs	r18, 0
    3cbe:	12 c0       	rjmp	.+36     	; 0x3ce4 <ungetc+0x2c>
    3cc0:	26 fd       	sbrc	r18, 6
    3cc2:	10 c0       	rjmp	.+32     	; 0x3ce4 <ungetc+0x2c>
    3cc4:	8f 3f       	cpi	r24, 0xFF	; 255
    3cc6:	3f ef       	ldi	r19, 0xFF	; 255
    3cc8:	93 07       	cpc	r25, r19
    3cca:	61 f0       	breq	.+24     	; 0x3ce4 <ungetc+0x2c>
    3ccc:	82 83       	std	Z+2, r24	; 0x02
    3cce:	2f 7d       	andi	r18, 0xDF	; 223
    3cd0:	20 64       	ori	r18, 0x40	; 64
    3cd2:	23 83       	std	Z+3, r18	; 0x03
    3cd4:	26 81       	ldd	r18, Z+6	; 0x06
    3cd6:	37 81       	ldd	r19, Z+7	; 0x07
    3cd8:	21 50       	subi	r18, 0x01	; 1
    3cda:	31 09       	sbc	r19, r1
    3cdc:	37 83       	std	Z+7, r19	; 0x07
    3cde:	26 83       	std	Z+6, r18	; 0x06
    3ce0:	99 27       	eor	r25, r25
    3ce2:	08 95       	ret
    3ce4:	8f ef       	ldi	r24, 0xFF	; 255
    3ce6:	9f ef       	ldi	r25, 0xFF	; 255
    3ce8:	08 95       	ret

00003cea <__ultoa_invert>:
    3cea:	fa 01       	movw	r30, r20
    3cec:	aa 27       	eor	r26, r26
    3cee:	28 30       	cpi	r18, 0x08	; 8
    3cf0:	51 f1       	breq	.+84     	; 0x3d46 <__ultoa_invert+0x5c>
    3cf2:	20 31       	cpi	r18, 0x10	; 16
    3cf4:	81 f1       	breq	.+96     	; 0x3d56 <__ultoa_invert+0x6c>
    3cf6:	e8 94       	clt
    3cf8:	6f 93       	push	r22
    3cfa:	6e 7f       	andi	r22, 0xFE	; 254
    3cfc:	6e 5f       	subi	r22, 0xFE	; 254
    3cfe:	7f 4f       	sbci	r23, 0xFF	; 255
    3d00:	8f 4f       	sbci	r24, 0xFF	; 255
    3d02:	9f 4f       	sbci	r25, 0xFF	; 255
    3d04:	af 4f       	sbci	r26, 0xFF	; 255
    3d06:	b1 e0       	ldi	r27, 0x01	; 1
    3d08:	3e d0       	rcall	.+124    	; 0x3d86 <__ultoa_invert+0x9c>
    3d0a:	b4 e0       	ldi	r27, 0x04	; 4
    3d0c:	3c d0       	rcall	.+120    	; 0x3d86 <__ultoa_invert+0x9c>
    3d0e:	67 0f       	add	r22, r23
    3d10:	78 1f       	adc	r23, r24
    3d12:	89 1f       	adc	r24, r25
    3d14:	9a 1f       	adc	r25, r26
    3d16:	a1 1d       	adc	r26, r1
    3d18:	68 0f       	add	r22, r24
    3d1a:	79 1f       	adc	r23, r25
    3d1c:	8a 1f       	adc	r24, r26
    3d1e:	91 1d       	adc	r25, r1
    3d20:	a1 1d       	adc	r26, r1
    3d22:	6a 0f       	add	r22, r26
    3d24:	71 1d       	adc	r23, r1
    3d26:	81 1d       	adc	r24, r1
    3d28:	91 1d       	adc	r25, r1
    3d2a:	a1 1d       	adc	r26, r1
    3d2c:	20 d0       	rcall	.+64     	; 0x3d6e <__ultoa_invert+0x84>
    3d2e:	09 f4       	brne	.+2      	; 0x3d32 <__ultoa_invert+0x48>
    3d30:	68 94       	set
    3d32:	3f 91       	pop	r19
    3d34:	2a e0       	ldi	r18, 0x0A	; 10
    3d36:	26 9f       	mul	r18, r22
    3d38:	11 24       	eor	r1, r1
    3d3a:	30 19       	sub	r19, r0
    3d3c:	30 5d       	subi	r19, 0xD0	; 208
    3d3e:	31 93       	st	Z+, r19
    3d40:	de f6       	brtc	.-74     	; 0x3cf8 <__ultoa_invert+0xe>
    3d42:	cf 01       	movw	r24, r30
    3d44:	08 95       	ret
    3d46:	46 2f       	mov	r20, r22
    3d48:	47 70       	andi	r20, 0x07	; 7
    3d4a:	40 5d       	subi	r20, 0xD0	; 208
    3d4c:	41 93       	st	Z+, r20
    3d4e:	b3 e0       	ldi	r27, 0x03	; 3
    3d50:	0f d0       	rcall	.+30     	; 0x3d70 <__ultoa_invert+0x86>
    3d52:	c9 f7       	brne	.-14     	; 0x3d46 <__ultoa_invert+0x5c>
    3d54:	f6 cf       	rjmp	.-20     	; 0x3d42 <__ultoa_invert+0x58>
    3d56:	46 2f       	mov	r20, r22
    3d58:	4f 70       	andi	r20, 0x0F	; 15
    3d5a:	40 5d       	subi	r20, 0xD0	; 208
    3d5c:	4a 33       	cpi	r20, 0x3A	; 58
    3d5e:	18 f0       	brcs	.+6      	; 0x3d66 <__ultoa_invert+0x7c>
    3d60:	49 5d       	subi	r20, 0xD9	; 217
    3d62:	31 fd       	sbrc	r19, 1
    3d64:	40 52       	subi	r20, 0x20	; 32
    3d66:	41 93       	st	Z+, r20
    3d68:	02 d0       	rcall	.+4      	; 0x3d6e <__ultoa_invert+0x84>
    3d6a:	a9 f7       	brne	.-22     	; 0x3d56 <__ultoa_invert+0x6c>
    3d6c:	ea cf       	rjmp	.-44     	; 0x3d42 <__ultoa_invert+0x58>
    3d6e:	b4 e0       	ldi	r27, 0x04	; 4
    3d70:	a6 95       	lsr	r26
    3d72:	97 95       	ror	r25
    3d74:	87 95       	ror	r24
    3d76:	77 95       	ror	r23
    3d78:	67 95       	ror	r22
    3d7a:	ba 95       	dec	r27
    3d7c:	c9 f7       	brne	.-14     	; 0x3d70 <__ultoa_invert+0x86>
    3d7e:	00 97       	sbiw	r24, 0x00	; 0
    3d80:	61 05       	cpc	r22, r1
    3d82:	71 05       	cpc	r23, r1
    3d84:	08 95       	ret
    3d86:	9b 01       	movw	r18, r22
    3d88:	ac 01       	movw	r20, r24
    3d8a:	0a 2e       	mov	r0, r26
    3d8c:	06 94       	lsr	r0
    3d8e:	57 95       	ror	r21
    3d90:	47 95       	ror	r20
    3d92:	37 95       	ror	r19
    3d94:	27 95       	ror	r18
    3d96:	ba 95       	dec	r27
    3d98:	c9 f7       	brne	.-14     	; 0x3d8c <__ultoa_invert+0xa2>
    3d9a:	62 0f       	add	r22, r18
    3d9c:	73 1f       	adc	r23, r19
    3d9e:	84 1f       	adc	r24, r20
    3da0:	95 1f       	adc	r25, r21
    3da2:	a0 1d       	adc	r26, r0
    3da4:	08 95       	ret

00003da6 <eeprom_read_word>:
    3da6:	a8 e1       	ldi	r26, 0x18	; 24
    3da8:	b0 e0       	ldi	r27, 0x00	; 0
    3daa:	42 e0       	ldi	r20, 0x02	; 2
    3dac:	50 e0       	ldi	r21, 0x00	; 0
    3dae:	0c 94 e1 1e 	jmp	0x3dc2	; 0x3dc2 <eeprom_read_blraw>

00003db2 <eeprom_update_word>:
    3db2:	01 96       	adiw	r24, 0x01	; 1
    3db4:	27 2f       	mov	r18, r23
    3db6:	0e 94 f0 1e 	call	0x3de0	; 0x3de0 <eeprom_update_r18>
    3dba:	0c 94 ef 1e 	jmp	0x3dde	; 0x3dde <eeprom_update_byte>

00003dbe <eeprom_read_block>:
    3dbe:	dc 01       	movw	r26, r24
    3dc0:	cb 01       	movw	r24, r22

00003dc2 <eeprom_read_blraw>:
    3dc2:	fc 01       	movw	r30, r24
    3dc4:	f9 99       	sbic	0x1f, 1	; 31
    3dc6:	fe cf       	rjmp	.-4      	; 0x3dc4 <eeprom_read_blraw+0x2>
    3dc8:	06 c0       	rjmp	.+12     	; 0x3dd6 <eeprom_read_blraw+0x14>
    3dca:	f2 bd       	out	0x22, r31	; 34
    3dcc:	e1 bd       	out	0x21, r30	; 33
    3dce:	f8 9a       	sbi	0x1f, 0	; 31
    3dd0:	31 96       	adiw	r30, 0x01	; 1
    3dd2:	00 b4       	in	r0, 0x20	; 32
    3dd4:	0d 92       	st	X+, r0
    3dd6:	41 50       	subi	r20, 0x01	; 1
    3dd8:	50 40       	sbci	r21, 0x00	; 0
    3dda:	b8 f7       	brcc	.-18     	; 0x3dca <eeprom_read_blraw+0x8>
    3ddc:	08 95       	ret

00003dde <eeprom_update_byte>:
    3dde:	26 2f       	mov	r18, r22

00003de0 <eeprom_update_r18>:
    3de0:	f9 99       	sbic	0x1f, 1	; 31
    3de2:	fe cf       	rjmp	.-4      	; 0x3de0 <eeprom_update_r18>
    3de4:	92 bd       	out	0x22, r25	; 34
    3de6:	81 bd       	out	0x21, r24	; 33
    3de8:	f8 9a       	sbi	0x1f, 0	; 31
    3dea:	01 97       	sbiw	r24, 0x01	; 1
    3dec:	00 b4       	in	r0, 0x20	; 32
    3dee:	02 16       	cp	r0, r18
    3df0:	39 f0       	breq	.+14     	; 0x3e00 <eeprom_update_r18+0x20>
    3df2:	1f ba       	out	0x1f, r1	; 31
    3df4:	20 bd       	out	0x20, r18	; 32
    3df6:	0f b6       	in	r0, 0x3f	; 63
    3df8:	f8 94       	cli
    3dfa:	fa 9a       	sbi	0x1f, 2	; 31
    3dfc:	f9 9a       	sbi	0x1f, 1	; 31
    3dfe:	0f be       	out	0x3f, r0	; 63
    3e00:	08 95       	ret

00003e02 <__muluhisi3>:
    3e02:	0e 94 43 1f 	call	0x3e86	; 0x3e86 <__umulhisi3>
    3e06:	a5 9f       	mul	r26, r21
    3e08:	90 0d       	add	r25, r0
    3e0a:	b4 9f       	mul	r27, r20
    3e0c:	90 0d       	add	r25, r0
    3e0e:	a4 9f       	mul	r26, r20
    3e10:	80 0d       	add	r24, r0
    3e12:	91 1d       	adc	r25, r1
    3e14:	11 24       	eor	r1, r1
    3e16:	08 95       	ret

00003e18 <__prologue_saves__>:
    3e18:	2f 92       	push	r2
    3e1a:	3f 92       	push	r3
    3e1c:	4f 92       	push	r4
    3e1e:	5f 92       	push	r5
    3e20:	6f 92       	push	r6
    3e22:	7f 92       	push	r7
    3e24:	8f 92       	push	r8
    3e26:	9f 92       	push	r9
    3e28:	af 92       	push	r10
    3e2a:	bf 92       	push	r11
    3e2c:	cf 92       	push	r12
    3e2e:	df 92       	push	r13
    3e30:	ef 92       	push	r14
    3e32:	ff 92       	push	r15
    3e34:	0f 93       	push	r16
    3e36:	1f 93       	push	r17
    3e38:	cf 93       	push	r28
    3e3a:	df 93       	push	r29
    3e3c:	cd b7       	in	r28, 0x3d	; 61
    3e3e:	de b7       	in	r29, 0x3e	; 62
    3e40:	ca 1b       	sub	r28, r26
    3e42:	db 0b       	sbc	r29, r27
    3e44:	0f b6       	in	r0, 0x3f	; 63
    3e46:	f8 94       	cli
    3e48:	de bf       	out	0x3e, r29	; 62
    3e4a:	0f be       	out	0x3f, r0	; 63
    3e4c:	cd bf       	out	0x3d, r28	; 61
    3e4e:	09 94       	ijmp

00003e50 <__epilogue_restores__>:
    3e50:	2a 88       	ldd	r2, Y+18	; 0x12
    3e52:	39 88       	ldd	r3, Y+17	; 0x11
    3e54:	48 88       	ldd	r4, Y+16	; 0x10
    3e56:	5f 84       	ldd	r5, Y+15	; 0x0f
    3e58:	6e 84       	ldd	r6, Y+14	; 0x0e
    3e5a:	7d 84       	ldd	r7, Y+13	; 0x0d
    3e5c:	8c 84       	ldd	r8, Y+12	; 0x0c
    3e5e:	9b 84       	ldd	r9, Y+11	; 0x0b
    3e60:	aa 84       	ldd	r10, Y+10	; 0x0a
    3e62:	b9 84       	ldd	r11, Y+9	; 0x09
    3e64:	c8 84       	ldd	r12, Y+8	; 0x08
    3e66:	df 80       	ldd	r13, Y+7	; 0x07
    3e68:	ee 80       	ldd	r14, Y+6	; 0x06
    3e6a:	fd 80       	ldd	r15, Y+5	; 0x05
    3e6c:	0c 81       	ldd	r16, Y+4	; 0x04
    3e6e:	1b 81       	ldd	r17, Y+3	; 0x03
    3e70:	aa 81       	ldd	r26, Y+2	; 0x02
    3e72:	b9 81       	ldd	r27, Y+1	; 0x01
    3e74:	ce 0f       	add	r28, r30
    3e76:	d1 1d       	adc	r29, r1
    3e78:	0f b6       	in	r0, 0x3f	; 63
    3e7a:	f8 94       	cli
    3e7c:	de bf       	out	0x3e, r29	; 62
    3e7e:	0f be       	out	0x3f, r0	; 63
    3e80:	cd bf       	out	0x3d, r28	; 61
    3e82:	ed 01       	movw	r28, r26
    3e84:	08 95       	ret

00003e86 <__umulhisi3>:
    3e86:	a2 9f       	mul	r26, r18
    3e88:	b0 01       	movw	r22, r0
    3e8a:	b3 9f       	mul	r27, r19
    3e8c:	c0 01       	movw	r24, r0
    3e8e:	a3 9f       	mul	r26, r19
    3e90:	70 0d       	add	r23, r0
    3e92:	81 1d       	adc	r24, r1
    3e94:	11 24       	eor	r1, r1
    3e96:	91 1d       	adc	r25, r1
    3e98:	b2 9f       	mul	r27, r18
    3e9a:	70 0d       	add	r23, r0
    3e9c:	81 1d       	adc	r24, r1
    3e9e:	11 24       	eor	r1, r1
    3ea0:	91 1d       	adc	r25, r1
    3ea2:	08 95       	ret

00003ea4 <_exit>:
    3ea4:	f8 94       	cli

00003ea6 <__stop_program>:
    3ea6:	ff cf       	rjmp	.-2      	; 0x3ea6 <__stop_program>
